
out.elf:     file format elf32-tradlittlemips


Disassembly of section .config_BFC02FF0:

bfc02ff0 <__config_BFC02FF0>:
bfc02ff0:	ff ff fe fa                                         ....

Disassembly of section .config_BFC02FF4:

bfc02ff4 <__config_BFC02FF4>:
bfc02ff4:	d9 79 f8 ff                                         .y..

Disassembly of section .config_BFC02FF8:

bfc02ff8 <__config_BFC02FF8>:
bfc02ff8:	db ce 6c ff                                         ..l.

Disassembly of section .config_BFC02FFC:

bfc02ffc <__config_BFC02FFC>:
bfc02ffc:	ff ff ff 7e                                         ...~

Disassembly of section .reset:

bd001970 <_reset>:
bd001970:	0f40065e 	jal	bd001978 <_startup>
bd001974:	00000000 	nop

bd001978 <_startup>:
bd001978:	401a6000 	mfc0	k0,c0_status
bd00197c:	7f5a04c0 	ext	k0,k0,0x13,0x1
bd001980:	13400005 	beqz	k0,bd001998 <_no_nmi>
bd001984:	00000000 	nop
bd001988:	3c1a9d00 	lui	k0,0x9d00
bd00198c:	275a7c00 	addiu	k0,k0,31744
bd001990:	03400008 	jr	k0
bd001994:	00000000 	nop

bd001998 <_no_nmi>:
bd001998:	3c1da002 	lui	sp,0xa002
bd00199c:	27bdfff8 	addiu	sp,sp,-8
bd0019a0:	3c1ca000 	lui	gp,0xa000
bd0019a4:	279c7ff0 	addiu	gp,gp,32752
bd0019a8:	40096002 	mfc0	t1,c0_srsctl
bd0019ac:	01205820 	add	t3,t1,zero
bd0019b0:	7d2a1e80 	ext	t2,t1,0x1a,0x4
bd0019b4:	7d494984 	ins	t1,t2,0x6,0x4
bd0019b8:	40896002 	mtc0	t1,c0_srsctl
bd0019bc:	000000c0 	ehb
bd0019c0:	41dce000 	wrpgpr	gp,gp
bd0019c4:	408b6002 	mtc0	t3,c0_srsctl
bd0019c8:	000000c0 	ehb
bd0019cc:	3c089d00 	lui	t0,0x9d00
bd0019d0:	25087c6c 	addiu	t0,t0,31852
bd0019d4:	0100f809 	jalr	t0
bd0019d8:	00000000 	nop

bd0019dc <_start_bss_init>:
bd0019dc:	3c08a000 	lui	t0,0xa000
bd0019e0:	25080004 	addiu	t0,t0,4
bd0019e4:	3c09a000 	lui	t1,0xa000
bd0019e8:	25290004 	addiu	t1,t1,4
bd0019ec:	10000003 	b	bd0019fc <_bss_check>
bd0019f0:	00000000 	nop

bd0019f4 <_bss_init>:
bd0019f4:	ad000000 	sw	zero,0(t0)
bd0019f8:	25080004 	addiu	t0,t0,4

bd0019fc <_bss_check>:
bd0019fc:	0109082b 	sltu	at,t0,t1
bd001a00:	1420fffc 	bnez	at,bd0019f4 <_bss_init>
bd001a04:	00000000 	nop
bd001a08:	3c089d00 	lui	t0,0x9d00
bd001a0c:	25086760 	addiu	t0,t0,26464
bd001a10:	0100f809 	jalr	t0
bd001a14:	00000000 	nop
bd001a18:	3c090000 	lui	t1,0x0
bd001a1c:	25290000 	addiu	t1,t1,0
bd001a20:	11200010 	beqz	t1,bd001a64 <_ramfunc_done>
bd001a24:	00000000 	nop
bd001a28:	3c090002 	lui	t1,0x2
bd001a2c:	25290000 	addiu	t1,t1,0
bd001a30:	3c0abf88 	lui	t2,0xbf88
bd001a34:	254a2010 	addiu	t2,t2,8208
bd001a38:	ad490000 	sw	t1,0(t2)
bd001a3c:	3c090002 	lui	t1,0x2
bd001a40:	25290000 	addiu	t1,t1,0
bd001a44:	3c0abf88 	lui	t2,0xbf88
bd001a48:	254a2020 	addiu	t2,t2,8224
bd001a4c:	ad490000 	sw	t1,0(t2)
bd001a50:	3c090002 	lui	t1,0x2
bd001a54:	25290000 	addiu	t1,t1,0
bd001a58:	3c0abf88 	lui	t2,0xbf88
bd001a5c:	254a2030 	addiu	t2,t2,8240
bd001a60:	ad490000 	sw	t1,0(t2)

bd001a64 <_ramfunc_done>:
bd001a64:	40804800 	mtc0	zero,c0_count
bd001a68:	240affff 	li	t2,-1
bd001a6c:	408a5800 	mtc0	t2,c0_compare
bd001a70:	3c080040 	lui	t0,0x40
bd001a74:	400a6000 	mfc0	t2,c0_status
bd001a78:	010a5025 	or	t2,t0,t2
bd001a7c:	408a6000 	mtc0	t2,c0_status
bd001a80:	3c099d00 	lui	t1,0x9d00
bd001a84:	25290000 	addiu	t1,t1,0
bd001a88:	000000c0 	ehb
bd001a8c:	40897801 	mtc0	t1,c0_ebase
bd001a90:	3c090000 	lui	t1,0x0
bd001a94:	25290001 	addiu	t1,t1,1
bd001a98:	240a0000 	li	t2,0
bd001a9c:	7d2a4944 	ins	t2,t1,0x5,0x5
bd001aa0:	408a6001 	mtc0	t2,c0_intctl
bd001aa4:	3c090080 	lui	t1,0x80
bd001aa8:	40896800 	mtc0	t1,c0_cause
bd001aac:	40088000 	mfc0	t0,c0_config
bd001ab0:	7d090580 	ext	t1,t0,0x16,0x1
bd001ab4:	00094c40 	sll	t1,t1,0x11
bd001ab8:	40086000 	mfc0	t0,c0_status
bd001abc:	3c010058 	lui	at,0x58
bd001ac0:	01014024 	and	t0,t0,at
bd001ac4:	01284025 	or	t0,t1,t0
bd001ac8:	40886000 	mtc0	t0,c0_status
bd001acc:	000000c0 	ehb
bd001ad0:	3c089d00 	lui	t0,0x9d00
bd001ad4:	25087c74 	addiu	t0,t0,31860
bd001ad8:	0100f809 	jalr	t0
bd001adc:	00000000 	nop
bd001ae0:	40086000 	mfc0	t0,c0_status
bd001ae4:	3c01ffbf 	lui	at,0xffbf
bd001ae8:	3421ffff 	ori	at,at,0xffff
bd001aec:	01014024 	and	t0,t0,at
bd001af0:	40886000 	mtc0	t0,c0_status
bd001af4:	30840000 	andi	a0,a0,0x0
bd001af8:	30a50000 	andi	a1,a1,0x0
bd001afc:	3c089d00 	lui	t0,0x9d00
bd001b00:	2508715c 	addiu	t0,t0,29020
bd001b04:	01000008 	jr	t0
bd001b08:	00000000 	nop

Disassembly of section .bev_excpt:

bd001cf0 <_bev_exception>:
bd001cf0:	3c1a9d00 	lui	k0,0x9d00
bd001cf4:	275a73d8 	addiu	k0,k0,29656
bd001cf8:	03400008 	jr	k0
bd001cfc:	00000000 	nop

Disassembly of section .app_excpt:

9d000180 <_gen_exception>:
9d000180:	3c1a9d00 	lui	k0,0x9d00
9d000184:	275a5d18 	addiu	k0,k0,23832
9d000188:	03400008 	jr	k0
9d00018c:	00000000 	nop

Disassembly of section .vector_0:

9d000200 <__vector_dispatch_0>:
9d000200:	0b401d1a 	j	9d007468 <_DefaultInterrupt>
9d000204:	00000000 	nop

Disassembly of section .vector_1:

9d000220 <__vector_dispatch_1>:
9d000220:	0b401d1a 	j	9d007468 <_DefaultInterrupt>
9d000224:	00000000 	nop

Disassembly of section .vector_2:

9d000240 <__vector_dispatch_2>:
9d000240:	0b401d1a 	j	9d007468 <_DefaultInterrupt>
9d000244:	00000000 	nop

Disassembly of section .vector_3:

9d000260 <__vector_dispatch_3>:
9d000260:	0b401d1a 	j	9d007468 <_DefaultInterrupt>
9d000264:	00000000 	nop

Disassembly of section .vector_4:

9d000280 <__vector_dispatch_4>:
9d000280:	0b401d1a 	j	9d007468 <_DefaultInterrupt>
9d000284:	00000000 	nop

Disassembly of section .vector_5:

9d0002a0 <__vector_dispatch_5>:
9d0002a0:	0b401d1a 	j	9d007468 <_DefaultInterrupt>
9d0002a4:	00000000 	nop

Disassembly of section .vector_6:

9d0002c0 <__vector_dispatch_6>:
9d0002c0:	0b401d1a 	j	9d007468 <_DefaultInterrupt>
9d0002c4:	00000000 	nop

Disassembly of section .vector_7:

9d0002e0 <__vector_dispatch_7>:
9d0002e0:	0b401d1a 	j	9d007468 <_DefaultInterrupt>
9d0002e4:	00000000 	nop

Disassembly of section .vector_8:

9d000300 <__vector_dispatch_8>:
9d000300:	0b401d1a 	j	9d007468 <_DefaultInterrupt>
9d000304:	00000000 	nop

Disassembly of section .vector_9:

9d000320 <__vector_dispatch_9>:
9d000320:	0b401d1a 	j	9d007468 <_DefaultInterrupt>
9d000324:	00000000 	nop

Disassembly of section .vector_10:

9d000340 <__vector_dispatch_10>:
9d000340:	0b401d1a 	j	9d007468 <_DefaultInterrupt>
9d000344:	00000000 	nop

Disassembly of section .vector_11:

9d000360 <__vector_dispatch_11>:
9d000360:	0b401d1a 	j	9d007468 <_DefaultInterrupt>
9d000364:	00000000 	nop

Disassembly of section .vector_12:

9d000380 <__vector_dispatch_12>:
9d000380:	0b401d1a 	j	9d007468 <_DefaultInterrupt>
9d000384:	00000000 	nop

Disassembly of section .vector_13:

9d0003a0 <__vector_dispatch_13>:
9d0003a0:	0b401d1a 	j	9d007468 <_DefaultInterrupt>
9d0003a4:	00000000 	nop

Disassembly of section .vector_14:

9d0003c0 <__vector_dispatch_14>:
9d0003c0:	0b401d1a 	j	9d007468 <_DefaultInterrupt>
9d0003c4:	00000000 	nop

Disassembly of section .vector_15:

9d0003e0 <__vector_dispatch_15>:
9d0003e0:	0b401d1a 	j	9d007468 <_DefaultInterrupt>
9d0003e4:	00000000 	nop

Disassembly of section .vector_16:

9d000400 <__vector_dispatch_16>:
9d000400:	0b401d1a 	j	9d007468 <_DefaultInterrupt>
9d000404:	00000000 	nop

Disassembly of section .vector_17:

9d000420 <__vector_dispatch_17>:
9d000420:	0b401d1a 	j	9d007468 <_DefaultInterrupt>
9d000424:	00000000 	nop

Disassembly of section .vector_18:

9d000440 <__vector_dispatch_18>:
9d000440:	0b401d1a 	j	9d007468 <_DefaultInterrupt>
9d000444:	00000000 	nop

Disassembly of section .vector_19:

9d000460 <__vector_dispatch_19>:
9d000460:	0b401d1a 	j	9d007468 <_DefaultInterrupt>
9d000464:	00000000 	nop

Disassembly of section .vector_20:

9d000480 <__vector_dispatch_20>:
9d000480:	0b401d1a 	j	9d007468 <_DefaultInterrupt>
9d000484:	00000000 	nop

Disassembly of section .vector_21:

9d0004a0 <__vector_dispatch_21>:
9d0004a0:	0b401d1a 	j	9d007468 <_DefaultInterrupt>
9d0004a4:	00000000 	nop

Disassembly of section .vector_22:

9d0004c0 <__vector_dispatch_22>:
9d0004c0:	0b401d1a 	j	9d007468 <_DefaultInterrupt>
9d0004c4:	00000000 	nop

Disassembly of section .vector_23:

9d0004e0 <__vector_dispatch_23>:
9d0004e0:	0b401d1a 	j	9d007468 <_DefaultInterrupt>
9d0004e4:	00000000 	nop

Disassembly of section .vector_24:

9d000500 <__vector_dispatch_24>:
9d000500:	0b401d1a 	j	9d007468 <_DefaultInterrupt>
9d000504:	00000000 	nop

Disassembly of section .vector_25:

9d000520 <__vector_dispatch_25>:
9d000520:	0b401d1a 	j	9d007468 <_DefaultInterrupt>
9d000524:	00000000 	nop

Disassembly of section .vector_26:

9d000540 <__vector_dispatch_26>:
9d000540:	0b401d1a 	j	9d007468 <_DefaultInterrupt>
9d000544:	00000000 	nop

Disassembly of section .vector_27:

9d000560 <__vector_dispatch_27>:
9d000560:	0b401d1a 	j	9d007468 <_DefaultInterrupt>
9d000564:	00000000 	nop

Disassembly of section .vector_28:

9d000580 <__vector_dispatch_28>:
9d000580:	0b401d1a 	j	9d007468 <_DefaultInterrupt>
9d000584:	00000000 	nop

Disassembly of section .vector_29:

9d0005a0 <__vector_dispatch_29>:
9d0005a0:	0b401d1a 	j	9d007468 <_DefaultInterrupt>
9d0005a4:	00000000 	nop

Disassembly of section .vector_30:

9d0005c0 <__vector_dispatch_30>:
9d0005c0:	0b401d1a 	j	9d007468 <_DefaultInterrupt>
9d0005c4:	00000000 	nop

Disassembly of section .vector_31:

9d0005e0 <__vector_dispatch_31>:
9d0005e0:	0b401d1a 	j	9d007468 <_DefaultInterrupt>
9d0005e4:	00000000 	nop

Disassembly of section .vector_32:

9d000600 <__vector_dispatch_32>:
9d000600:	0b401d1a 	j	9d007468 <_DefaultInterrupt>
9d000604:	00000000 	nop

Disassembly of section .vector_33:

9d000620 <__vector_dispatch_33>:
9d000620:	0b401d1a 	j	9d007468 <_DefaultInterrupt>
9d000624:	00000000 	nop

Disassembly of section .vector_34:

9d000640 <__vector_dispatch_34>:
9d000640:	0b401d1a 	j	9d007468 <_DefaultInterrupt>
9d000644:	00000000 	nop

Disassembly of section .vector_35:

9d000660 <__vector_dispatch_35>:
9d000660:	0b401d1a 	j	9d007468 <_DefaultInterrupt>
9d000664:	00000000 	nop

Disassembly of section .vector_36:

9d000680 <__vector_dispatch_36>:
9d000680:	0b401d1a 	j	9d007468 <_DefaultInterrupt>
9d000684:	00000000 	nop

Disassembly of section .vector_37:

9d0006a0 <__vector_dispatch_37>:
9d0006a0:	0b401d1a 	j	9d007468 <_DefaultInterrupt>
9d0006a4:	00000000 	nop

Disassembly of section .vector_38:

9d0006c0 <__vector_dispatch_38>:
9d0006c0:	0b401d1a 	j	9d007468 <_DefaultInterrupt>
9d0006c4:	00000000 	nop

Disassembly of section .vector_39:

9d0006e0 <__vector_dispatch_39>:
9d0006e0:	0b401d1a 	j	9d007468 <_DefaultInterrupt>
9d0006e4:	00000000 	nop

Disassembly of section .vector_40:

9d000700 <__vector_dispatch_40>:
9d000700:	0b401d1a 	j	9d007468 <_DefaultInterrupt>
9d000704:	00000000 	nop

Disassembly of section .vector_41:

9d000720 <__vector_dispatch_41>:
9d000720:	0b401d1a 	j	9d007468 <_DefaultInterrupt>
9d000724:	00000000 	nop

Disassembly of section .vector_42:

9d000740 <__vector_dispatch_42>:
9d000740:	0b401d1a 	j	9d007468 <_DefaultInterrupt>
9d000744:	00000000 	nop

Disassembly of section .vector_43:

9d000760 <__vector_dispatch_43>:
9d000760:	0b401d1a 	j	9d007468 <_DefaultInterrupt>
9d000764:	00000000 	nop

Disassembly of section .vector_44:

9d000780 <__vector_dispatch_44>:
9d000780:	0b401d1a 	j	9d007468 <_DefaultInterrupt>
9d000784:	00000000 	nop

Disassembly of section .vector_45:

9d0007a0 <__vector_dispatch_45>:
9d0007a0:	0b401d1a 	j	9d007468 <_DefaultInterrupt>
9d0007a4:	00000000 	nop

Disassembly of section .vector_46:

9d0007c0 <__vector_dispatch_46>:
9d0007c0:	0b401d1a 	j	9d007468 <_DefaultInterrupt>
9d0007c4:	00000000 	nop

Disassembly of section .vector_47:

9d0007e0 <__vector_dispatch_47>:
9d0007e0:	0b401d1a 	j	9d007468 <_DefaultInterrupt>
9d0007e4:	00000000 	nop

Disassembly of section .vector_48:

9d000800 <__vector_dispatch_48>:
9d000800:	0b401d1a 	j	9d007468 <_DefaultInterrupt>
9d000804:	00000000 	nop

Disassembly of section .vector_49:

9d000820 <__vector_dispatch_49>:
9d000820:	0b401d1a 	j	9d007468 <_DefaultInterrupt>
9d000824:	00000000 	nop

Disassembly of section .vector_50:

9d000840 <__vector_dispatch_50>:
9d000840:	0b401d1a 	j	9d007468 <_DefaultInterrupt>
9d000844:	00000000 	nop

Disassembly of section .vector_51:

9d000860 <__vector_dispatch_51>:
9d000860:	0b401d1a 	j	9d007468 <_DefaultInterrupt>
9d000864:	00000000 	nop

Disassembly of section .rodata:

9d001e00 <.rodata>:
9d001e00:	00006425 	0x6425
9d001e04:	0a0d6425 	j	98359094 <_bmxdudba_address+0x98339094>
9d001e08:	0c000000 	jal	90000000 <_bmxdudba_address+0x8ffe0000>
9d001e0c:	6e727554 	0x6e727554
9d001e10:	20676e69 	addi	a3,v1,28265
9d001e14:	4c206e6f 	0x4c206e6f
9d001e18:	2e324445 	sltiu	s2,s1,17477
9d001e1c:	0a0d2e2e 	j	9834b8b8 <_bmxdudba_address+0x9832b8b8>
9d001e20:	0c000000 	jal	90000000 <_bmxdudba_address+0x8ffe0000>
9d001e24:	6c696e28 	0x6c696e28
9d001e28:	00000029 	0x29

Disassembly of section ._debug_exception:

bfc00480 <__DbgExecReturn>:
bfc00480:	409bf800 	mtc0	k1,c0_desave
bfc00484:	000000c0 	ehb
bfc00488:	3c1b9d00 	lui	k1,0x9d00
bfc0048c:	277b74b0 	addiu	k1,k1,29872
bfc00490:	13600002 	beqz	k1,bfc0049c <__DbgExecReturn+0x1c>
bfc00494:	00000000 	nop
bfc00498:	409bc000 	mtc0	k1,c0_depc
bfc0049c:	401bf800 	mfc0	k1,c0_desave
bfc004a0:	000000c0 	ehb
bfc004a4:	4200001f 	deret
bfc004a8:	00000000 	nop

Disassembly of section .text.__scanf_core:

9d001e2c <__scanf_core>:
9d001e2c:	27bdfe20 	addiu	sp,sp,-480
9d001e30:	afb701d4 	sw	s7,468(sp)
9d001e34:	afb601d0 	sw	s6,464(sp)
9d001e38:	afb501cc 	sw	s5,460(sp)
9d001e3c:	afb201c0 	sw	s2,448(sp)
9d001e40:	afb001b8 	sw	s0,440(sp)
9d001e44:	afbf01dc 	sw	ra,476(sp)
9d001e48:	afbe01d8 	sw	s8,472(sp)
9d001e4c:	afb401c8 	sw	s4,456(sp)
9d001e50:	afb301c4 	sw	s3,452(sp)
9d001e54:	afb101bc 	sw	s1,444(sp)
9d001e58:	00808025 	move	s0,a0
9d001e5c:	00c09025 	move	s2,a2
9d001e60:	afa501b4 	sw	a1,436(sp)
9d001e64:	afa001b0 	sw	zero,432(sp)
9d001e68:	0000a825 	move	s5,zero
9d001e6c:	27b7011c 	addiu	s7,sp,284
9d001e70:	24160025 	li	s6,37
9d001e74:	8fa201b4 	lw	v0,436(sp)
9d001e78:	80420000 	lb	v0,0(v0)
9d001e7c:	1040005d 	beqz	v0,9d001ff4 <__scanf_core+0x1c8>
9d001e80:	24020080 	li	v0,128
9d001e84:	27a501b4 	addiu	a1,sp,436
9d001e88:	02002025 	move	a0,s0
9d001e8c:	afa0019c 	sw	zero,412(sp)
9d001e90:	afa001a0 	sw	zero,416(sp)
9d001e94:	afa001a4 	sw	zero,420(sp)
9d001e98:	afb701a8 	sw	s7,424(sp)
9d001e9c:	0f401ac1 	jal	9d006b04 <__consumews>
9d001ea0:	afa201ac 	sw	v0,428(sp)
9d001ea4:	00408825 	move	s1,v0
9d001ea8:	2414ffff 	li	s4,-1
9d001eac:	8fa301b4 	lw	v1,436(sp)
9d001eb0:	80620000 	lb	v0,0(v1)
9d001eb4:	50400004 	beqzl	v0,9d001ec8 <__scanf_core+0x9c>
9d001eb8:	8fa201b0 	lw	v0,432(sp)
9d001ebc:	5456003d 	bnel	v0,s6,9d001fb4 <__scanf_core+0x188>
9d001ec0:	8e02003c 	lw	v0,60(s0)
9d001ec4:	8fa201b0 	lw	v0,432(sp)
9d001ec8:	00511021 	addu	v0,v0,s1
9d001ecc:	afa201b0 	sw	v0,432(sp)
9d001ed0:	80620000 	lb	v0,0(v1)
9d001ed4:	14560031 	bne	v0,s6,9d001f9c <__scanf_core+0x170>
9d001ed8:	2402ffff 	li	v0,-1
9d001edc:	24620001 	addiu	v0,v1,1
9d001ee0:	afa201b4 	sw	v0,436(sp)
9d001ee4:	afa001a4 	sw	zero,420(sp)
9d001ee8:	80640001 	lb	a0,1(v1)
9d001eec:	2402002a 	li	v0,42
9d001ef0:	14820004 	bne	a0,v0,9d001f04 <__scanf_core+0xd8>
9d001ef4:	00008825 	move	s1,zero
9d001ef8:	24630002 	addiu	v1,v1,2
9d001efc:	afa301b4 	sw	v1,436(sp)
9d001f00:	24110001 	li	s1,1
9d001f04:	0f401a62 	jal	9d006988 <atoi>
9d001f08:	8fa401b4 	lw	a0,436(sp)
9d001f0c:	00403025 	move	a2,v0
9d001f10:	00023fc3 	sra	a3,v0,0x1f
9d001f14:	02002025 	move	a0,s0
9d001f18:	0f401cbd 	jal	9d0072f4 <__shlim>
9d001f1c:	afa201a4 	sw	v0,420(sp)
9d001f20:	8fa301b4 	lw	v1,436(sp)
9d001f24:	80620000 	lb	v0,0(v1)
9d001f28:	2442ffd0 	addiu	v0,v0,-48
9d001f2c:	2c42000a 	sltiu	v0,v0,10
9d001f30:	1440004c 	bnez	v0,9d002064 <__scanf_core+0x238>
9d001f34:	24630001 	addiu	v1,v1,1
9d001f38:	0f401be7 	jal	9d006f9c <__fmt_state>
9d001f3c:	27a401b4 	addiu	a0,sp,436
9d001f40:	0040a025 	move	s4,v0
9d001f44:	8fa201b4 	lw	v0,436(sp)
9d001f48:	0f401eb4 	jal	9d007ad0 <tolower>
9d001f4c:	80440000 	lb	a0,0(v0)
9d001f50:	28430068 	slti	v1,v0,104
9d001f54:	1060005f 	beqz	v1,9d0020d4 <__scanf_core+0x2a8>
9d001f58:	24030070 	li	v1,112
9d001f5c:	28430065 	slti	v1,v0,101
9d001f60:	106000bc 	beqz	v1,9d002254 <__scanf_core+0x428>
9d001f64:	24030061 	li	v1,97
9d001f68:	104300ba 	beq	v0,v1,9d002254 <__scanf_core+0x428>
9d001f6c:	28430062 	slti	v1,v0,98
9d001f70:	5060003e 	beqzl	v1,9d00206c <__scanf_core+0x240>
9d001f74:	24030063 	li	v1,99
9d001f78:	105600e0 	beq	v0,s6,9d0022fc <__scanf_core+0x4d0>
9d001f7c:	8fa301b4 	lw	v1,436(sp)
9d001f80:	2404005b 	li	a0,91
9d001f84:	104400fa 	beq	v0,a0,9d002370 <__scanf_core+0x544>
9d001f88:	24020080 	li	v0,128
9d001f8c:	8fa201b4 	lw	v0,436(sp)
9d001f90:	24420001 	addiu	v0,v0,1
9d001f94:	afa201b4 	sw	v0,436(sp)
9d001f98:	2402ffff 	li	v0,-1
9d001f9c:	166200ab 	bne	s3,v0,9d00224c <__scanf_core+0x420>
9d001fa0:	00008825 	move	s1,zero
9d001fa4:	52a00013 	beqzl	s5,9d001ff4 <__scanf_core+0x1c8>
9d001fa8:	2415ffff 	li	s5,-1
9d001fac:	10000012 	b	9d001ff8 <__scanf_core+0x1cc>
9d001fb0:	8fbf01dc 	lw	ra,476(sp)
9d001fb4:	8e03004c 	lw	v1,76(s0)
9d001fb8:	0043182b 	sltu	v1,v0,v1
9d001fbc:	1060001a 	beqz	v1,9d002028 <__scanf_core+0x1fc>
9d001fc0:	24430001 	addiu	v1,v0,1
9d001fc4:	ae03003c 	sw	v1,60(s0)
9d001fc8:	90530000 	lbu	s3,0(v0)
9d001fcc:	8fa201b4 	lw	v0,436(sp)
9d001fd0:	80420000 	lb	v0,0(v0)
9d001fd4:	10530019 	beq	v0,s3,9d00203c <__scanf_core+0x210>
9d001fd8:	8fa201b0 	lw	v0,432(sp)
9d001fdc:	8e02004c 	lw	v0,76(s0)
9d001fe0:	10400005 	beqz	v0,9d001ff8 <__scanf_core+0x1cc>
9d001fe4:	8fbf01dc 	lw	ra,476(sp)
9d001fe8:	8e02003c 	lw	v0,60(s0)
9d001fec:	2442ffff 	addiu	v0,v0,-1
9d001ff0:	ae02003c 	sw	v0,60(s0)
9d001ff4:	8fbf01dc 	lw	ra,476(sp)
9d001ff8:	02a01025 	move	v0,s5
9d001ffc:	8fbe01d8 	lw	s8,472(sp)
9d002000:	8fb701d4 	lw	s7,468(sp)
9d002004:	8fb601d0 	lw	s6,464(sp)
9d002008:	8fb501cc 	lw	s5,460(sp)
9d00200c:	8fb401c8 	lw	s4,456(sp)
9d002010:	8fb301c4 	lw	s3,452(sp)
9d002014:	8fb201c0 	lw	s2,448(sp)
9d002018:	8fb101bc 	lw	s1,444(sp)
9d00201c:	8fb001b8 	lw	s0,440(sp)
9d002020:	03e00008 	jr	ra
9d002024:	27bd01e0 	addiu	sp,sp,480
9d002028:	0f4014fb 	jal	9d0053ec <__shgetc>
9d00202c:	02002025 	move	a0,s0
9d002030:	1454ffe6 	bne	v0,s4,9d001fcc <__scanf_core+0x1a0>
9d002034:	00409825 	move	s3,v0
9d002038:	8fa201b0 	lw	v0,432(sp)
9d00203c:	27a501b4 	addiu	a1,sp,436
9d002040:	02002025 	move	a0,s0
9d002044:	24420001 	addiu	v0,v0,1
9d002048:	afa201b0 	sw	v0,432(sp)
9d00204c:	8fa201b4 	lw	v0,436(sp)
9d002050:	24420001 	addiu	v0,v0,1
9d002054:	0f401ac1 	jal	9d006b04 <__consumews>
9d002058:	afa201b4 	sw	v0,436(sp)
9d00205c:	1000ff93 	b	9d001eac <__scanf_core+0x80>
9d002060:	02228821 	addu	s1,s1,v0
9d002064:	1000ffae 	b	9d001f20 <__scanf_core+0xf4>
9d002068:	afa301b4 	sw	v1,436(sp)
9d00206c:	1043008a 	beq	v0,v1,9d002298 <__scanf_core+0x46c>
9d002070:	24030064 	li	v1,100
9d002074:	1443ffc5 	bne	v0,v1,9d001f8c <__scanf_core+0x160>
9d002078:	27a701b0 	addiu	a3,sp,432
9d00207c:	27a6019c 	addiu	a2,sp,412
9d002080:	27a50018 	addiu	a1,sp,24
9d002084:	0f401b18 	jal	9d006c60 <__scan_d>
9d002088:	02002025 	move	a0,s0
9d00208c:	0442000c 	bltzl	v0,9d0020c0 <__scanf_core+0x294>
9d002090:	00408825 	move	s1,v0
9d002094:	8fa201b4 	lw	v0,436(sp)
9d002098:	24420001 	addiu	v0,v0,1
9d00209c:	162000a8 	bnez	s1,9d002340 <__scanf_core+0x514>
9d0020a0:	afa201b4 	sw	v0,436(sp)
9d0020a4:	02403825 	move	a3,s2
9d0020a8:	24060001 	li	a2,1
9d0020ac:	02802825 	move	a1,s4
9d0020b0:	0f401209 	jal	9d004824 <__push_int>
9d0020b4:	27a40018 	addiu	a0,sp,24
9d0020b8:	04410064 	bgez	v0,9d00224c <__scanf_core+0x420>
9d0020bc:	00408825 	move	s1,v0
9d0020c0:	2402ffff 	li	v0,-1
9d0020c4:	1222ffb7 	beq	s1,v0,9d001fa4 <__scanf_core+0x178>
9d0020c8:	8fbf01dc 	lw	ra,476(sp)
9d0020cc:	1000ffcb 	b	9d001ffc <__scanf_core+0x1d0>
9d0020d0:	02a01025 	move	v0,s5
9d0020d4:	10430041 	beq	v0,v1,9d0021dc <__scanf_core+0x3b0>
9d0020d8:	28430071 	slti	v1,v0,113
9d0020dc:	1060000e 	beqz	v1,9d002118 <__scanf_core+0x2ec>
9d0020e0:	24030075 	li	v1,117
9d0020e4:	2403006e 	li	v1,110
9d0020e8:	1043004b 	beq	v0,v1,9d002218 <__scanf_core+0x3ec>
9d0020ec:	2843006f 	slti	v1,v0,111
9d0020f0:	1060002c 	beqz	v1,9d0021a4 <__scanf_core+0x378>
9d0020f4:	24030069 	li	v1,105
9d0020f8:	1443ffa4 	bne	v0,v1,9d001f8c <__scanf_core+0x160>
9d0020fc:	27a701b0 	addiu	a3,sp,432
9d002100:	27a6019c 	addiu	a2,sp,412
9d002104:	27a50018 	addiu	a1,sp,24
9d002108:	0f400e81 	jal	9d003a04 <__scan_i>
9d00210c:	02002025 	move	a0,s0
9d002110:	1000ffde 	b	9d00208c <__scanf_core+0x260>
9d002114:	00000000 	nop
9d002118:	10430014 	beq	v0,v1,9d00216c <__scanf_core+0x340>
9d00211c:	24030078 	li	v1,120
9d002120:	10430027 	beq	v0,v1,9d0021c0 <__scanf_core+0x394>
9d002124:	24030073 	li	v1,115
9d002128:	1443ff99 	bne	v0,v1,9d001f90 <__scanf_core+0x164>
9d00212c:	8fa201b4 	lw	v0,436(sp)
9d002130:	24020080 	li	v0,128
9d002134:	1682ff96 	bne	s4,v0,9d001f90 <__scanf_core+0x164>
9d002138:	8fa201b4 	lw	v0,436(sp)
9d00213c:	24420001 	addiu	v0,v0,1
9d002140:	afa201b4 	sw	v0,436(sp)
9d002144:	16200005 	bnez	s1,9d00215c <__scanf_core+0x330>
9d002148:	00001025 	move	v0,zero
9d00214c:	8e420000 	lw	v0,0(s2)
9d002150:	24430004 	addiu	v1,v0,4
9d002154:	ae430000 	sw	v1,0(s2)
9d002158:	8c420000 	lw	v0,0(v0)
9d00215c:	afa20010 	sw	v0,16(sp)
9d002160:	27a701b0 	addiu	a3,sp,432
9d002164:	10000060 	b	9d0022e8 <__scanf_core+0x4bc>
9d002168:	24060001 	li	a2,1
9d00216c:	27a701b0 	addiu	a3,sp,432
9d002170:	27a6019c 	addiu	a2,sp,412
9d002174:	27a50018 	addiu	a1,sp,24
9d002178:	0f401b34 	jal	9d006cd0 <__scan_u>
9d00217c:	02002025 	move	a0,s0
9d002180:	0442ffcf 	bltzl	v0,9d0020c0 <__scanf_core+0x294>
9d002184:	00408825 	move	s1,v0
9d002188:	8fa201b4 	lw	v0,436(sp)
9d00218c:	24420001 	addiu	v0,v0,1
9d002190:	1620006b 	bnez	s1,9d002340 <__scanf_core+0x514>
9d002194:	afa201b4 	sw	v0,436(sp)
9d002198:	02403825 	move	a3,s2
9d00219c:	1000ffc3 	b	9d0020ac <__scanf_core+0x280>
9d0021a0:	00003025 	move	a2,zero
9d0021a4:	27a701b0 	addiu	a3,sp,432
9d0021a8:	27a6019c 	addiu	a2,sp,412
9d0021ac:	27a50018 	addiu	a1,sp,24
9d0021b0:	0f401312 	jal	9d004c48 <__scan_o>
9d0021b4:	02002025 	move	a0,s0
9d0021b8:	1000fff1 	b	9d002180 <__scanf_core+0x354>
9d0021bc:	00000000 	nop
9d0021c0:	27a701b0 	addiu	a3,sp,432
9d0021c4:	27a6019c 	addiu	a2,sp,412
9d0021c8:	27a50018 	addiu	a1,sp,24
9d0021cc:	0f401059 	jal	9d004164 <__scan_x>
9d0021d0:	02002025 	move	a0,s0
9d0021d4:	1000ffea 	b	9d002180 <__scanf_core+0x354>
9d0021d8:	00000000 	nop
9d0021dc:	27a701b0 	addiu	a3,sp,432
9d0021e0:	27a6019c 	addiu	a2,sp,412
9d0021e4:	27a50018 	addiu	a1,sp,24
9d0021e8:	0f401059 	jal	9d004164 <__scan_x>
9d0021ec:	02002025 	move	a0,s0
9d0021f0:	0442ffb3 	bltzl	v0,9d0020c0 <__scanf_core+0x294>
9d0021f4:	00408825 	move	s1,v0
9d0021f8:	8fa201b4 	lw	v0,436(sp)
9d0021fc:	24420001 	addiu	v0,v0,1
9d002200:	1620004f 	bnez	s1,9d002340 <__scanf_core+0x514>
9d002204:	afa201b4 	sw	v0,436(sp)
9d002208:	02403825 	move	a3,s2
9d00220c:	00003025 	move	a2,zero
9d002210:	1000ffa7 	b	9d0020b0 <__scanf_core+0x284>
9d002214:	240500f0 	li	a1,240
9d002218:	8fa201b4 	lw	v0,436(sp)
9d00221c:	24420001 	addiu	v0,v0,1
9d002220:	afa201b4 	sw	v0,436(sp)
9d002224:	8fa201b0 	lw	v0,432(sp)
9d002228:	afa20018 	sw	v0,24(sp)
9d00222c:	000217c3 	sra	v0,v0,0x1f
9d002230:	16200043 	bnez	s1,9d002340 <__scanf_core+0x514>
9d002234:	afa2001c 	sw	v0,28(sp)
9d002238:	02403825 	move	a3,s2
9d00223c:	00003025 	move	a2,zero
9d002240:	02802825 	move	a1,s4
9d002244:	0f401209 	jal	9d004824 <__push_int>
9d002248:	27a40018 	addiu	a0,sp,24
9d00224c:	1000ff09 	b	9d001e74 <__scanf_core+0x48>
9d002250:	02b1a821 	addu	s5,s5,s1
9d002254:	27a701b0 	addiu	a3,sp,432
9d002258:	27a6019c 	addiu	a2,sp,412
9d00225c:	27a50018 	addiu	a1,sp,24
9d002260:	0f401f25 	jal	9d007c94 <__scan_a>
9d002264:	02002025 	move	a0,s0
9d002268:	0442ff95 	bltzl	v0,9d0020c0 <__scanf_core+0x294>
9d00226c:	00408825 	move	s1,v0
9d002270:	8fa201b4 	lw	v0,436(sp)
9d002274:	24420001 	addiu	v0,v0,1
9d002278:	16200031 	bnez	s1,9d002340 <__scanf_core+0x514>
9d00227c:	afa201b4 	sw	v0,436(sp)
9d002280:	02403025 	move	a2,s2
9d002284:	02802825 	move	a1,s4
9d002288:	0f4018ed 	jal	9d0063b4 <__push_float>
9d00228c:	27a40018 	addiu	a0,sp,24
9d002290:	1000ff89 	b	9d0020b8 <__scanf_core+0x28c>
9d002294:	00000000 	nop
9d002298:	24020080 	li	v0,128
9d00229c:	1682ff3c 	bne	s4,v0,9d001f90 <__scanf_core+0x164>
9d0022a0:	8fa201b4 	lw	v0,436(sp)
9d0022a4:	8fa201a4 	lw	v0,420(sp)
9d0022a8:	54400004 	bnezl	v0,9d0022bc <__scanf_core+0x490>
9d0022ac:	8fa201b4 	lw	v0,436(sp)
9d0022b0:	24020001 	li	v0,1
9d0022b4:	afa201a4 	sw	v0,420(sp)
9d0022b8:	8fa201b4 	lw	v0,436(sp)
9d0022bc:	24420001 	addiu	v0,v0,1
9d0022c0:	afa201b4 	sw	v0,436(sp)
9d0022c4:	16200005 	bnez	s1,9d0022dc <__scanf_core+0x4b0>
9d0022c8:	00001025 	move	v0,zero
9d0022cc:	8e420000 	lw	v0,0(s2)
9d0022d0:	24430004 	addiu	v1,v0,4
9d0022d4:	ae430000 	sw	v1,0(s2)
9d0022d8:	8c420000 	lw	v0,0(v0)
9d0022dc:	afa20010 	sw	v0,16(sp)
9d0022e0:	27a701b0 	addiu	a3,sp,432
9d0022e4:	00003025 	move	a2,zero
9d0022e8:	27a5019c 	addiu	a1,sp,412
9d0022ec:	0f401265 	jal	9d004994 <__scan_s>
9d0022f0:	02002025 	move	a0,s0
9d0022f4:	1000ff70 	b	9d0020b8 <__scanf_core+0x28c>
9d0022f8:	00000000 	nop
9d0022fc:	24020080 	li	v0,128
9d002300:	1682ff23 	bne	s4,v0,9d001f90 <__scanf_core+0x164>
9d002304:	8fa201b4 	lw	v0,436(sp)
9d002308:	24630001 	addiu	v1,v1,1
9d00230c:	afa301b4 	sw	v1,436(sp)
9d002310:	8e02003c 	lw	v0,60(s0)
9d002314:	8e03004c 	lw	v1,76(s0)
9d002318:	0043182b 	sltu	v1,v0,v1
9d00231c:	1060000a 	beqz	v1,9d002348 <__scanf_core+0x51c>
9d002320:	24430001 	addiu	v1,v0,1
9d002324:	ae03003c 	sw	v1,60(s0)
9d002328:	90420000 	lbu	v0,0(v0)
9d00232c:	5456000a 	bnel	v0,s6,9d002358 <__scanf_core+0x52c>
9d002330:	8e02004c 	lw	v0,76(s0)
9d002334:	8fa201b0 	lw	v0,432(sp)
9d002338:	24420001 	addiu	v0,v0,1
9d00233c:	afa201b0 	sw	v0,432(sp)
9d002340:	1000ffc2 	b	9d00224c <__scanf_core+0x420>
9d002344:	00008825 	move	s1,zero
9d002348:	0f4014fb 	jal	9d0053ec <__shgetc>
9d00234c:	02002025 	move	a0,s0
9d002350:	1000fff6 	b	9d00232c <__scanf_core+0x500>
9d002354:	00000000 	nop
9d002358:	5040ffbc 	beqzl	v0,9d00224c <__scanf_core+0x420>
9d00235c:	00008825 	move	s1,zero
9d002360:	8e02003c 	lw	v0,60(s0)
9d002364:	2442ffff 	addiu	v0,v0,-1
9d002368:	1000fff5 	b	9d002340 <__scanf_core+0x514>
9d00236c:	ae02003c 	sw	v0,60(s0)
9d002370:	1682ff07 	bne	s4,v0,9d001f90 <__scanf_core+0x164>
9d002374:	8fa201b4 	lw	v0,436(sp)
9d002378:	16200005 	bnez	s1,9d002390 <__scanf_core+0x564>
9d00237c:	0000a025 	move	s4,zero
9d002380:	8e420000 	lw	v0,0(s2)
9d002384:	24440004 	addiu	a0,v0,4
9d002388:	ae440000 	sw	a0,0(s2)
9d00238c:	8c540000 	lw	s4,0(v0)
9d002390:	24620001 	addiu	v0,v1,1
9d002394:	afa201b4 	sw	v0,436(sp)
9d002398:	80640001 	lb	a0,1(v1)
9d00239c:	2402005e 	li	v0,94
9d0023a0:	14820004 	bne	a0,v0,9d0023b4 <__scanf_core+0x588>
9d0023a4:	00008825 	move	s1,zero
9d0023a8:	24630002 	addiu	v1,v1,2
9d0023ac:	afa301b4 	sw	v1,436(sp)
9d0023b0:	24110001 	li	s1,1
9d0023b4:	27a40018 	addiu	a0,sp,24
9d0023b8:	24060101 	li	a2,257
9d0023bc:	0f401e7c 	jal	9d0079f0 <memset>
9d0023c0:	02202825 	move	a1,s1
9d0023c4:	8fa201b4 	lw	v0,436(sp)
9d0023c8:	a3a00018 	sb	zero,24(sp)
9d0023cc:	2404002d 	li	a0,45
9d0023d0:	80430000 	lb	v1,0(v0)
9d0023d4:	1464001f 	bne	v1,a0,9d002454 <__scanf_core+0x628>
9d0023d8:	2404005d 	li	a0,93
9d0023dc:	24420001 	addiu	v0,v0,1
9d0023e0:	afa201b4 	sw	v0,436(sp)
9d0023e4:	24020001 	li	v0,1
9d0023e8:	00511023 	subu	v0,v0,s1
9d0023ec:	a3a20046 	sb	v0,70(sp)
9d0023f0:	24020001 	li	v0,1
9d0023f4:	00518823 	subu	s1,v0,s1
9d0023f8:	2405005d 	li	a1,93
9d0023fc:	2406002d 	li	a2,45
9d002400:	322700ff 	andi	a3,s1,0xff
9d002404:	8fa301b4 	lw	v1,436(sp)
9d002408:	80620000 	lb	v0,0(v1)
9d00240c:	14450019 	bne	v0,a1,9d002474 <__scanf_core+0x648>
9d002410:	00000000 	nop
9d002414:	16800039 	bnez	s4,9d0024fc <__scanf_core+0x6d0>
9d002418:	00008825 	move	s1,zero
9d00241c:	8e02003c 	lw	v0,60(s0)
9d002420:	8e03004c 	lw	v1,76(s0)
9d002424:	0043182b 	sltu	v1,v0,v1
9d002428:	10600055 	beqz	v1,9d002580 <__scanf_core+0x754>
9d00242c:	24430001 	addiu	v1,v0,1
9d002430:	ae03003c 	sw	v1,60(s0)
9d002434:	90530000 	lbu	s3,0(v0)
9d002438:	27a20018 	addiu	v0,sp,24
9d00243c:	00531021 	addu	v0,v0,s3
9d002440:	90420001 	lbu	v0,1(v0)
9d002444:	1440004b 	bnez	v0,9d002574 <__scanf_core+0x748>
9d002448:	8fa201b0 	lw	v0,432(sp)
9d00244c:	10000038 	b	9d002530 <__scanf_core+0x704>
9d002450:	0000f025 	move	s8,zero
9d002454:	5464ffe7 	bnel	v1,a0,9d0023f4 <__scanf_core+0x5c8>
9d002458:	24020001 	li	v0,1
9d00245c:	24420001 	addiu	v0,v0,1
9d002460:	afa201b4 	sw	v0,436(sp)
9d002464:	24020001 	li	v0,1
9d002468:	00511023 	subu	v0,v0,s1
9d00246c:	1000ffe0 	b	9d0023f0 <__scanf_core+0x5c4>
9d002470:	a3a20076 	sb	v0,118(sp)
9d002474:	1040ffe7 	beqz	v0,9d002414 <__scanf_core+0x5e8>
9d002478:	00000000 	nop
9d00247c:	10460009 	beq	v0,a2,9d0024a4 <__scanf_core+0x678>
9d002480:	8fa201b8 	lw	v0,440(sp)
9d002484:	8fa201b4 	lw	v0,436(sp)
9d002488:	27a40018 	addiu	a0,sp,24
9d00248c:	80430000 	lb	v1,0(v0)
9d002490:	24420001 	addiu	v0,v0,1
9d002494:	afa201b4 	sw	v0,436(sp)
9d002498:	00831821 	addu	v1,a0,v1
9d00249c:	1000ffd9 	b	9d002404 <__scanf_core+0x5d8>
9d0024a0:	a0710001 	sb	s1,1(v1)
9d0024a4:	80420000 	lb	v0,0(v0)
9d0024a8:	5040fff7 	beqzl	v0,9d002488 <__scanf_core+0x65c>
9d0024ac:	8fa201b4 	lw	v0,436(sp)
9d0024b0:	1045fff5 	beq	v0,a1,9d002488 <__scanf_core+0x65c>
9d0024b4:	8fa201b4 	lw	v0,436(sp)
9d0024b8:	24620001 	addiu	v0,v1,1
9d0024bc:	afa201b4 	sw	v0,436(sp)
9d0024c0:	8fa201b0 	lw	v0,432(sp)
9d0024c4:	80420000 	lb	v0,0(v0)
9d0024c8:	80640001 	lb	a0,1(v1)
9d0024cc:	0044202a 	slt	a0,v0,a0
9d0024d0:	1080ffec 	beqz	a0,9d002484 <__scanf_core+0x658>
9d0024d4:	24420001 	addiu	v0,v0,1
9d0024d8:	27a40018 	addiu	a0,sp,24
9d0024dc:	00822021 	addu	a0,a0,v0
9d0024e0:	1000fff9 	b	9d0024c8 <__scanf_core+0x69c>
9d0024e4:	a0870000 	sb	a3,0(a0)
9d0024e8:	a0530000 	sb	s3,0(v0)
9d0024ec:	8fa201b0 	lw	v0,432(sp)
9d0024f0:	26310001 	addiu	s1,s1,1
9d0024f4:	24420001 	addiu	v0,v0,1
9d0024f8:	afa201b0 	sw	v0,432(sp)
9d0024fc:	8e02003c 	lw	v0,60(s0)
9d002500:	8e03004c 	lw	v1,76(s0)
9d002504:	0043182b 	sltu	v1,v0,v1
9d002508:	10600016 	beqz	v1,9d002564 <__scanf_core+0x738>
9d00250c:	0220f025 	move	s8,s1
9d002510:	24430001 	addiu	v1,v0,1
9d002514:	ae03003c 	sw	v1,60(s0)
9d002518:	90530000 	lbu	s3,0(v0)
9d00251c:	27a20018 	addiu	v0,sp,24
9d002520:	00531021 	addu	v0,v0,s3
9d002524:	90420001 	lbu	v0,1(v0)
9d002528:	1440ffef 	bnez	v0,9d0024e8 <__scanf_core+0x6bc>
9d00252c:	02911021 	addu	v0,s4,s1
9d002530:	8e02004c 	lw	v0,76(s0)
9d002534:	10400004 	beqz	v0,9d002548 <__scanf_core+0x71c>
9d002538:	00000000 	nop
9d00253c:	8e02003c 	lw	v0,60(s0)
9d002540:	2442ffff 	addiu	v0,v0,-1
9d002544:	ae02003c 	sw	v0,60(s0)
9d002548:	13c0fe91 	beqz	s8,9d001f90 <__scanf_core+0x164>
9d00254c:	8fa201b4 	lw	v0,436(sp)
9d002550:	1280fe90 	beqz	s4,9d001f94 <__scanf_core+0x168>
9d002554:	24420001 	addiu	v0,v0,1
9d002558:	029ea021 	addu	s4,s4,s8
9d00255c:	1000fe8b 	b	9d001f8c <__scanf_core+0x160>
9d002560:	a2800000 	sb	zero,0(s4)
9d002564:	0f4014fb 	jal	9d0053ec <__shgetc>
9d002568:	02002025 	move	a0,s0
9d00256c:	1000ffeb 	b	9d00251c <__scanf_core+0x6f0>
9d002570:	00409825 	move	s3,v0
9d002574:	24420001 	addiu	v0,v0,1
9d002578:	1000ffa8 	b	9d00241c <__scanf_core+0x5f0>
9d00257c:	afa201b0 	sw	v0,432(sp)
9d002580:	0f4014fb 	jal	9d0053ec <__shgetc>
9d002584:	02002025 	move	a0,s0
9d002588:	1000ffab 	b	9d002438 <__scanf_core+0x60c>
9d00258c:	00409825 	move	s3,v0

Disassembly of section .text.__intscan:

9d002590 <__intscan>:
9d002590:	27bdffb8 	addiu	sp,sp,-72
9d002594:	2ca20025 	sltiu	v0,a1,37
9d002598:	afb3002c 	sw	s3,44(sp)
9d00259c:	afb20028 	sw	s2,40(sp)
9d0025a0:	afbf0044 	sw	ra,68(sp)
9d0025a4:	afbe0040 	sw	s8,64(sp)
9d0025a8:	afb7003c 	sw	s7,60(sp)
9d0025ac:	afb60038 	sw	s6,56(sp)
9d0025b0:	afb50034 	sw	s5,52(sp)
9d0025b4:	afb40030 	sw	s4,48(sp)
9d0025b8:	afb10024 	sw	s1,36(sp)
9d0025bc:	afb00020 	sw	s0,32(sp)
9d0025c0:	8fb30058 	lw	s3,88(sp)
9d0025c4:	10400007 	beqz	v0,9d0025e4 <__intscan+0x54>
9d0025c8:	8fb2005c 	lw	s2,92(sp)
9d0025cc:	24020001 	li	v0,1
9d0025d0:	00808025 	move	s0,a0
9d0025d4:	00a0f025 	move	s8,a1
9d0025d8:	00c0a025 	move	s4,a2
9d0025dc:	14a20005 	bne	a1,v0,9d0025f4 <__intscan+0x64>
9d0025e0:	24110020 	li	s1,32
9d0025e4:	3c02a000 	lui	v0,0xa000
9d0025e8:	24030016 	li	v1,22
9d0025ec:	1000004f 	b	9d00272c <__intscan+0x19c>
9d0025f0:	ac43035c 	sw	v1,860(v0)
9d0025f4:	8e02003c 	lw	v0,60(s0)
9d0025f8:	8e03004c 	lw	v1,76(s0)
9d0025fc:	0043182b 	sltu	v1,v0,v1
9d002600:	10600020 	beqz	v1,9d002684 <__intscan+0xf4>
9d002604:	24430001 	addiu	v1,v0,1
9d002608:	ae03003c 	sw	v1,60(s0)
9d00260c:	90480000 	lbu	t0,0(v0)
9d002610:	1111fff8 	beq	t0,s1,9d0025f4 <__intscan+0x64>
9d002614:	2502fff7 	addiu	v0,t0,-9
9d002618:	2c420005 	sltiu	v0,v0,5
9d00261c:	5440fff6 	bnezl	v0,9d0025f8 <__intscan+0x68>
9d002620:	8e02003c 	lw	v0,60(s0)
9d002624:	2502ffd5 	addiu	v0,t0,-43
9d002628:	7c020844 	ins	v0,zero,0x1,0x1
9d00262c:	1440000b 	bnez	v0,9d00265c <__intscan+0xcc>
9d002630:	0000a825 	move	s5,zero
9d002634:	8e02003c 	lw	v0,60(s0)
9d002638:	8e03004c 	lw	v1,76(s0)
9d00263c:	3915002d 	xori	s5,t0,0x2d
9d002640:	2eb50001 	sltiu	s5,s5,1
9d002644:	0043182b 	sltu	v1,v0,v1
9d002648:	10600012 	beqz	v1,9d002694 <__intscan+0x104>
9d00264c:	0015a823 	negu	s5,s5
9d002650:	24430001 	addiu	v1,v0,1
9d002654:	ae03003c 	sw	v1,60(s0)
9d002658:	90480000 	lbu	t0,0(v0)
9d00265c:	13c00011 	beqz	s8,9d0026a4 <__intscan+0x114>
9d002660:	8e03004c 	lw	v1,76(s0)
9d002664:	24020010 	li	v0,16
9d002668:	17c2005b 	bne	s8,v0,9d0027d8 <__intscan+0x248>
9d00266c:	3c029d00 	lui	v0,0x9d00
9d002670:	24020030 	li	v0,48
9d002674:	5102000f 	beql	t0,v0,9d0026b4 <__intscan+0x124>
9d002678:	8e02003c 	lw	v0,60(s0)
9d00267c:	10000056 	b	9d0027d8 <__intscan+0x248>
9d002680:	3c029d00 	lui	v0,0x9d00
9d002684:	0f4014fb 	jal	9d0053ec <__shgetc>
9d002688:	02002025 	move	a0,s0
9d00268c:	1000ffe0 	b	9d002610 <__intscan+0x80>
9d002690:	00404025 	move	t0,v0
9d002694:	0f4014fb 	jal	9d0053ec <__shgetc>
9d002698:	02002025 	move	a0,s0
9d00269c:	1000ffef 	b	9d00265c <__intscan+0xcc>
9d0026a0:	00404025 	move	t0,v0
9d0026a4:	24020030 	li	v0,48
9d0026a8:	5502004a 	bnel	t0,v0,9d0027d4 <__intscan+0x244>
9d0026ac:	241e000a 	li	s8,10
9d0026b0:	8e02003c 	lw	v0,60(s0)
9d0026b4:	0043182b 	sltu	v1,v0,v1
9d0026b8:	1060002c 	beqz	v1,9d00276c <__intscan+0x1dc>
9d0026bc:	24430001 	addiu	v1,v0,1
9d0026c0:	ae03003c 	sw	v1,60(s0)
9d0026c4:	90480000 	lbu	t0,0(v0)
9d0026c8:	35020020 	ori	v0,t0,0x20
9d0026cc:	24030078 	li	v1,120
9d0026d0:	14430036 	bne	v0,v1,9d0027ac <__intscan+0x21c>
9d0026d4:	00000000 	nop
9d0026d8:	8e02003c 	lw	v0,60(s0)
9d0026dc:	8e03004c 	lw	v1,76(s0)
9d0026e0:	0043182b 	sltu	v1,v0,v1
9d0026e4:	10600025 	beqz	v1,9d00277c <__intscan+0x1ec>
9d0026e8:	24430001 	addiu	v1,v0,1
9d0026ec:	ae03003c 	sw	v1,60(s0)
9d0026f0:	90480000 	lbu	t0,0(v0)
9d0026f4:	3c029d00 	lui	v0,0x9d00
9d0026f8:	2442574d 	addiu	v0,v0,22349
9d0026fc:	01021021 	addu	v0,t0,v0
9d002700:	90420000 	lbu	v0,0(v0)
9d002704:	2c420010 	sltiu	v0,v0,16
9d002708:	144000b7 	bnez	v0,9d0029e8 <__intscan+0x458>
9d00270c:	241e0010 	li	s8,16
9d002710:	8e02004c 	lw	v0,76(s0)
9d002714:	1040015c 	beqz	v0,9d002c88 <__intscan+0x6f8>
9d002718:	00000000 	nop
9d00271c:	1280001b 	beqz	s4,9d00278c <__intscan+0x1fc>
9d002720:	8e02003c 	lw	v0,60(s0)
9d002724:	2442fffe 	addiu	v0,v0,-2
9d002728:	ae02003c 	sw	v0,60(s0)
9d00272c:	00008825 	move	s1,zero
9d002730:	0000b825 	move	s7,zero
9d002734:	8fbf0044 	lw	ra,68(sp)
9d002738:	02201025 	move	v0,s1
9d00273c:	02e01825 	move	v1,s7
9d002740:	8fbe0040 	lw	s8,64(sp)
9d002744:	8fb7003c 	lw	s7,60(sp)
9d002748:	8fb60038 	lw	s6,56(sp)
9d00274c:	8fb50034 	lw	s5,52(sp)
9d002750:	8fb40030 	lw	s4,48(sp)
9d002754:	8fb3002c 	lw	s3,44(sp)
9d002758:	8fb20028 	lw	s2,40(sp)
9d00275c:	8fb10024 	lw	s1,36(sp)
9d002760:	8fb00020 	lw	s0,32(sp)
9d002764:	03e00008 	jr	ra
9d002768:	27bd0048 	addiu	sp,sp,72
9d00276c:	0f4014fb 	jal	9d0053ec <__shgetc>
9d002770:	02002025 	move	a0,s0
9d002774:	1000ffd4 	b	9d0026c8 <__intscan+0x138>
9d002778:	00404025 	move	t0,v0
9d00277c:	0f4014fb 	jal	9d0053ec <__shgetc>
9d002780:	02002025 	move	a0,s0
9d002784:	1000ffdb 	b	9d0026f4 <__intscan+0x164>
9d002788:	00404025 	move	t0,v0
9d00278c:	2442ffff 	addiu	v0,v0,-1
9d002790:	ae02003c 	sw	v0,60(s0)
9d002794:	00003025 	move	a2,zero
9d002798:	00003825 	move	a3,zero
9d00279c:	0f401cbd 	jal	9d0072f4 <__shlim>
9d0027a0:	02002025 	move	a0,s0
9d0027a4:	1000ffe2 	b	9d002730 <__intscan+0x1a0>
9d0027a8:	00008825 	move	s1,zero
9d0027ac:	53c0008e 	beqzl	s8,9d0029e8 <__intscan+0x458>
9d0027b0:	241e0008 	li	s8,8
9d0027b4:	2402000a 	li	v0,10
9d0027b8:	57c2008c 	bnel	s8,v0,9d0029ec <__intscan+0x45c>
9d0027bc:	27d1ffff 	addiu	s1,s8,-1
9d0027c0:	3c141999 	lui	s4,0x1999
9d0027c4:	00008825 	move	s1,zero
9d0027c8:	36949999 	ori	s4,s4,0x9999
9d0027cc:	1000001a 	b	9d002838 <__intscan+0x2a8>
9d0027d0:	2416000a 	li	s6,10
9d0027d4:	3c029d00 	lui	v0,0x9d00
9d0027d8:	2442574d 	addiu	v0,v0,22349
9d0027dc:	01021021 	addu	v0,t0,v0
9d0027e0:	90420000 	lbu	v0,0(v0)
9d0027e4:	005e102b 	sltu	v0,v0,s8
9d0027e8:	1440fff3 	bnez	v0,9d0027b8 <__intscan+0x228>
9d0027ec:	2402000a 	li	v0,10
9d0027f0:	10600004 	beqz	v1,9d002804 <__intscan+0x274>
9d0027f4:	00003025 	move	a2,zero
9d0027f8:	8e02003c 	lw	v0,60(s0)
9d0027fc:	2442ffff 	addiu	v0,v0,-1
9d002800:	ae02003c 	sw	v0,60(s0)
9d002804:	00003825 	move	a3,zero
9d002808:	0f401cbd 	jal	9d0072f4 <__shlim>
9d00280c:	02002025 	move	a0,s0
9d002810:	1000ff75 	b	9d0025e8 <__intscan+0x58>
9d002814:	3c02a000 	lui	v0,0xa000
9d002818:	00688821 	addu	s1,v1,t0
9d00281c:	8e03003c 	lw	v1,60(s0)
9d002820:	0062102b 	sltu	v0,v1,v0
9d002824:	1040005c 	beqz	v0,9d002998 <__intscan+0x408>
9d002828:	2631ffd0 	addiu	s1,s1,-48
9d00282c:	24620001 	addiu	v0,v1,1
9d002830:	ae02003c 	sw	v0,60(s0)
9d002834:	90680000 	lbu	t0,0(v1)
9d002838:	2503ffd0 	addiu	v1,t0,-48
9d00283c:	2c63000a 	sltiu	v1,v1,10
9d002840:	10600004 	beqz	v1,9d002854 <__intscan+0x2c4>
9d002844:	8e02004c 	lw	v0,76(s0)
9d002848:	0234182b 	sltu	v1,s1,s4
9d00284c:	1460fff2 	bnez	v1,9d002818 <__intscan+0x288>
9d002850:	72361802 	mul	v1,s1,s6
9d002854:	3c141999 	lui	s4,0x1999
9d002858:	3694999a 	ori	s4,s4,0x999a
9d00285c:	3c169999 	lui	s6,0x9999
9d002860:	0000b825 	move	s7,zero
9d002864:	2689ffff 	addiu	t1,s4,-1
9d002868:	36d6999a 	ori	s6,s6,0x999a
9d00286c:	2502ffd0 	addiu	v0,t0,-48
9d002870:	2c43000a 	sltiu	v1,v0,10
9d002874:	1060002e 	beqz	v1,9d002930 <__intscan+0x3a0>
9d002878:	8e06004c 	lw	a2,76(s0)
9d00287c:	02f4182b 	sltu	v1,s7,s4
9d002880:	50600012 	beqzl	v1,9d0028cc <__intscan+0x33c>
9d002884:	3c149d00 	lui	s4,0x9d00
9d002888:	16e90004 	bne	s7,t1,9d00289c <__intscan+0x30c>
9d00288c:	2403000a 	li	v1,10
9d002890:	0236182b 	sltu	v1,s1,s6
9d002894:	1060000c 	beqz	v1,9d0028c8 <__intscan+0x338>
9d002898:	2403000a 	li	v1,10
9d00289c:	00710019 	multu	v1,s1
9d0028a0:	240affff 	li	t2,-1
9d0028a4:	00002810 	mfhi	a1
9d0028a8:	00002012 	mflo	a0
9d0028ac:	70773802 	mul	a3,v1,s7
9d0028b0:	00e52821 	addu	a1,a3,a1
9d0028b4:	14aa003c 	bne	a1,t2,9d0029a8 <__intscan+0x418>
9d0028b8:	00021827 	nor	v1,zero,v0
9d0028bc:	0064182b 	sltu	v1,v1,a0
9d0028c0:	5060003a 	beqzl	v1,9d0029ac <__intscan+0x41c>
9d0028c4:	00448821 	addu	s1,v0,a0
9d0028c8:	3c149d00 	lui	s4,0x9d00
9d0028cc:	2694574d 	addiu	s4,s4,22349
9d0028d0:	01144021 	addu	t0,t0,s4
9d0028d4:	91020000 	lbu	v0,0(t0)
9d0028d8:	005e102b 	sltu	v0,v0,s8
9d0028dc:	50400015 	beqzl	v0,9d002934 <__intscan+0x3a4>
9d0028e0:	8e02004c 	lw	v0,76(s0)
9d0028e4:	8e02003c 	lw	v0,60(s0)
9d0028e8:	8e03004c 	lw	v1,76(s0)
9d0028ec:	0043182b 	sltu	v1,v0,v1
9d0028f0:	106000cd 	beqz	v1,9d002c28 <__intscan+0x698>
9d0028f4:	24430001 	addiu	v1,v0,1
9d0028f8:	ae03003c 	sw	v1,60(s0)
9d0028fc:	90420000 	lbu	v0,0(v0)
9d002900:	02821021 	addu	v0,s4,v0
9d002904:	90420000 	lbu	v0,0(v0)
9d002908:	005e102b 	sltu	v0,v0,s8
9d00290c:	5440fff6 	bnezl	v0,9d0028e8 <__intscan+0x358>
9d002910:	8e02003c 	lw	v0,60(s0)
9d002914:	3c02a000 	lui	v0,0xa000
9d002918:	24030022 	li	v1,34
9d00291c:	ac43035c 	sw	v1,860(v0)
9d002920:	32620001 	andi	v0,s3,0x1
9d002924:	02608825 	move	s1,s3
9d002928:	0240b825 	move	s7,s2
9d00292c:	0002a80b 	movn	s5,zero,v0
9d002930:	8e02004c 	lw	v0,76(s0)
9d002934:	10400005 	beqz	v0,9d00294c <__intscan+0x3bc>
9d002938:	02f2102b 	sltu	v0,s7,s2
9d00293c:	8e02003c 	lw	v0,60(s0)
9d002940:	2442ffff 	addiu	v0,v0,-1
9d002944:	ae02003c 	sw	v0,60(s0)
9d002948:	02f2102b 	sltu	v0,s7,s2
9d00294c:	144000c7 	bnez	v0,9d002c6c <__intscan+0x6dc>
9d002950:	2402ffff 	li	v0,-1
9d002954:	16570005 	bne	s2,s7,9d00296c <__intscan+0x3dc>
9d002958:	32620001 	andi	v0,s3,0x1
9d00295c:	0233102b 	sltu	v0,s1,s3
9d002960:	144000c2 	bnez	v0,9d002c6c <__intscan+0x6dc>
9d002964:	2402ffff 	li	v0,-1
9d002968:	32620001 	andi	v0,s3,0x1
9d00296c:	144000b2 	bnez	v0,9d002c38 <__intscan+0x6a8>
9d002970:	0257102b 	sltu	v0,s2,s7
9d002974:	16a000b0 	bnez	s5,9d002c38 <__intscan+0x6a8>
9d002978:	24030022 	li	v1,34
9d00297c:	2671ffff 	addiu	s1,s3,-1
9d002980:	3c02a000 	lui	v0,0xa000
9d002984:	0233982b 	sltu	s3,s1,s3
9d002988:	2652ffff 	addiu	s2,s2,-1
9d00298c:	ac43035c 	sw	v1,860(v0)
9d002990:	1000ff68 	b	9d002734 <__intscan+0x1a4>
9d002994:	0272b821 	addu	s7,s3,s2
9d002998:	0f4014fb 	jal	9d0053ec <__shgetc>
9d00299c:	02002025 	move	a0,s0
9d0029a0:	1000ffa5 	b	9d002838 <__intscan+0x2a8>
9d0029a4:	00404025 	move	t0,v0
9d0029a8:	00448821 	addu	s1,v0,a0
9d0029ac:	8e02003c 	lw	v0,60(s0)
9d0029b0:	0224382b 	sltu	a3,s1,a0
9d0029b4:	0046302b 	sltu	a2,v0,a2
9d0029b8:	10c00005 	beqz	a2,9d0029d0 <__intscan+0x440>
9d0029bc:	00e5b821 	addu	s7,a3,a1
9d0029c0:	24430001 	addiu	v1,v0,1
9d0029c4:	ae03003c 	sw	v1,60(s0)
9d0029c8:	1000ffa8 	b	9d00286c <__intscan+0x2dc>
9d0029cc:	90480000 	lbu	t0,0(v0)
9d0029d0:	0f4014fb 	jal	9d0053ec <__shgetc>
9d0029d4:	02002025 	move	a0,s0
9d0029d8:	00404025 	move	t0,v0
9d0029dc:	3c021999 	lui	v0,0x1999
9d0029e0:	1000ffa2 	b	9d00286c <__intscan+0x2dc>
9d0029e4:	34499999 	ori	t1,v0,0x9999
9d0029e8:	27d1ffff 	addiu	s1,s8,-1
9d0029ec:	3c149d00 	lui	s4,0x9d00
9d0029f0:	023e8824 	and	s1,s1,s8
9d0029f4:	16200084 	bnez	s1,9d002c08 <__intscan+0x678>
9d0029f8:	2694574d 	addiu	s4,s4,22349
9d0029fc:	24020017 	li	v0,23
9d002a00:	73c21002 	mul	v0,s8,v0
9d002a04:	3c039d00 	lui	v1,0x9d00
9d002a08:	24635740 	addiu	v1,v1,22336
9d002a0c:	3c160800 	lui	s6,0x800
9d002a10:	7c421140 	ext	v0,v0,0x5,0x3
9d002a14:	00431021 	addu	v0,v0,v1
9d002a18:	80420000 	lb	v0,0(v0)
9d002a1c:	afa20010 	sw	v0,16(sp)
9d002a20:	02881021 	addu	v0,s4,t0
9d002a24:	90440000 	lbu	a0,0(v0)
9d002a28:	009e102b 	sltu	v0,a0,s8
9d002a2c:	10400004 	beqz	v0,9d002a40 <__intscan+0x4b0>
9d002a30:	8e03004c 	lw	v1,76(s0)
9d002a34:	0236102b 	sltu	v0,s1,s6
9d002a38:	14400028 	bnez	v0,9d002adc <__intscan+0x54c>
9d002a3c:	8fa20010 	lw	v0,16(sp)
9d002a40:	8fa60010 	lw	a2,16(sp)
9d002a44:	2404ffff 	li	a0,-1
9d002a48:	2405ffff 	li	a1,-1
9d002a4c:	0f401da8 	jal	9d0076a0 <__lshrdi3>
9d002a50:	afa80018 	sw	t0,24(sp)
9d002a54:	8fa80018 	lw	t0,24(sp)
9d002a58:	0000b825 	move	s7,zero
9d002a5c:	afa20014 	sw	v0,20(sp)
9d002a60:	0060b025 	move	s6,v1
9d002a64:	02881021 	addu	v0,s4,t0
9d002a68:	904b0000 	lbu	t3,0(v0)
9d002a6c:	017e102b 	sltu	v0,t3,s8
9d002a70:	1040ff95 	beqz	v0,9d0028c8 <__intscan+0x338>
9d002a74:	8e0a004c 	lw	t2,76(s0)
9d002a78:	02d7102b 	sltu	v0,s6,s7
9d002a7c:	5440ff93 	bnezl	v0,9d0028cc <__intscan+0x33c>
9d002a80:	3c149d00 	lui	s4,0x9d00
9d002a84:	16f60005 	bne	s7,s6,9d002a9c <__intscan+0x50c>
9d002a88:	8fa60010 	lw	a2,16(sp)
9d002a8c:	8fa20014 	lw	v0,20(sp)
9d002a90:	0051102b 	sltu	v0,v0,s1
9d002a94:	5440ff8d 	bnezl	v0,9d0028cc <__intscan+0x33c>
9d002a98:	3c149d00 	lui	s4,0x9d00
9d002a9c:	02202025 	move	a0,s1
9d002aa0:	02e02825 	move	a1,s7
9d002aa4:	afaa001c 	sw	t2,28(sp)
9d002aa8:	0f401db7 	jal	9d0076dc <__ashldi3>
9d002aac:	afab0018 	sw	t3,24(sp)
9d002ab0:	8fab0018 	lw	t3,24(sp)
9d002ab4:	8faa001c 	lw	t2,28(sp)
9d002ab8:	01628825 	or	s1,t3,v0
9d002abc:	8e02003c 	lw	v0,60(s0)
9d002ac0:	004a502b 	sltu	t2,v0,t2
9d002ac4:	11400012 	beqz	t2,9d002b10 <__intscan+0x580>
9d002ac8:	0060b825 	move	s7,v1
9d002acc:	24430001 	addiu	v1,v0,1
9d002ad0:	ae03003c 	sw	v1,60(s0)
9d002ad4:	1000ffe3 	b	9d002a64 <__intscan+0x4d4>
9d002ad8:	90480000 	lbu	t0,0(v0)
9d002adc:	00518804 	sllv	s1,s1,v0
9d002ae0:	8e02003c 	lw	v0,60(s0)
9d002ae4:	0043182b 	sltu	v1,v0,v1
9d002ae8:	10600005 	beqz	v1,9d002b00 <__intscan+0x570>
9d002aec:	02248825 	or	s1,s1,a0
9d002af0:	24430001 	addiu	v1,v0,1
9d002af4:	ae03003c 	sw	v1,60(s0)
9d002af8:	1000ffc9 	b	9d002a20 <__intscan+0x490>
9d002afc:	90480000 	lbu	t0,0(v0)
9d002b00:	0f4014fb 	jal	9d0053ec <__shgetc>
9d002b04:	02002025 	move	a0,s0
9d002b08:	1000ffc5 	b	9d002a20 <__intscan+0x490>
9d002b0c:	00404025 	move	t0,v0
9d002b10:	0f4014fb 	jal	9d0053ec <__shgetc>
9d002b14:	02002025 	move	a0,s0
9d002b18:	1000ffd2 	b	9d002a64 <__intscan+0x4d4>
9d002b1c:	00404025 	move	t0,v0
9d002b20:	00838821 	addu	s1,a0,v1
9d002b24:	8e03003c 	lw	v1,60(s0)
9d002b28:	0062102b 	sltu	v0,v1,v0
9d002b2c:	10400032 	beqz	v0,9d002bf8 <__intscan+0x668>
9d002b30:	00000000 	nop
9d002b34:	24620001 	addiu	v0,v1,1
9d002b38:	ae02003c 	sw	v0,60(s0)
9d002b3c:	90680000 	lbu	t0,0(v1)
9d002b40:	02881021 	addu	v0,s4,t0
9d002b44:	90430000 	lbu	v1,0(v0)
9d002b48:	007e202b 	sltu	a0,v1,s8
9d002b4c:	10800004 	beqz	a0,9d002b60 <__intscan+0x5d0>
9d002b50:	8e02004c 	lw	v0,76(s0)
9d002b54:	0236202b 	sltu	a0,s1,s6
9d002b58:	1480fff1 	bnez	a0,9d002b20 <__intscan+0x590>
9d002b5c:	73d12002 	mul	a0,s8,s1
9d002b60:	0000b825 	move	s7,zero
9d002b64:	2416ffff 	li	s6,-1
9d002b68:	02881021 	addu	v0,s4,t0
9d002b6c:	90420000 	lbu	v0,0(v0)
9d002b70:	005e182b 	sltu	v1,v0,s8
9d002b74:	1060ff54 	beqz	v1,9d0028c8 <__intscan+0x338>
9d002b78:	8e06004c 	lw	a2,76(s0)
9d002b7c:	023e0019 	multu	s1,s8
9d002b80:	00002012 	mflo	a0
9d002b84:	12e00009 	beqz	s7,9d002bac <__intscan+0x61c>
9d002b88:	00002810 	mfhi	a1
9d002b8c:	03d70019 	multu	s8,s7
9d002b90:	00005012 	mflo	t2
9d002b94:	00aa1821 	addu	v1,a1,t2
9d002b98:	006a182b 	sltu	v1,v1,t2
9d002b9c:	00005810 	mfhi	t3
9d002ba0:	006b1821 	addu	v1,v1,t3
9d002ba4:	5460ff49 	bnezl	v1,9d0028cc <__intscan+0x33c>
9d002ba8:	3c149d00 	lui	s4,0x9d00
9d002bac:	00801825 	move	v1,a0
9d002bb0:	00a02025 	move	a0,a1
9d002bb4:	72fe2802 	mul	a1,s7,s8
9d002bb8:	00a42021 	addu	a0,a1,a0
9d002bbc:	14960004 	bne	a0,s6,9d002bd0 <__intscan+0x640>
9d002bc0:	00022827 	nor	a1,zero,v0
9d002bc4:	00a3282b 	sltu	a1,a1,v1
9d002bc8:	54a0ff40 	bnezl	a1,9d0028cc <__intscan+0x33c>
9d002bcc:	3c149d00 	lui	s4,0x9d00
9d002bd0:	00438821 	addu	s1,v0,v1
9d002bd4:	8e02003c 	lw	v0,60(s0)
9d002bd8:	0223182b 	sltu	v1,s1,v1
9d002bdc:	0046302b 	sltu	a2,v0,a2
9d002be0:	10c0000d 	beqz	a2,9d002c18 <__intscan+0x688>
9d002be4:	0064b821 	addu	s7,v1,a0
9d002be8:	24430001 	addiu	v1,v0,1
9d002bec:	ae03003c 	sw	v1,60(s0)
9d002bf0:	1000ffdd 	b	9d002b68 <__intscan+0x5d8>
9d002bf4:	90480000 	lbu	t0,0(v0)
9d002bf8:	0f4014fb 	jal	9d0053ec <__shgetc>
9d002bfc:	02002025 	move	a0,s0
9d002c00:	1000ffcf 	b	9d002b40 <__intscan+0x5b0>
9d002c04:	00404025 	move	t0,v0
9d002c08:	3c16071c 	lui	s6,0x71c
9d002c0c:	00008825 	move	s1,zero
9d002c10:	1000ffcb 	b	9d002b40 <__intscan+0x5b0>
9d002c14:	26d671c7 	addiu	s6,s6,29127
9d002c18:	0f4014fb 	jal	9d0053ec <__shgetc>
9d002c1c:	02002025 	move	a0,s0
9d002c20:	1000ffd1 	b	9d002b68 <__intscan+0x5d8>
9d002c24:	00404025 	move	t0,v0
9d002c28:	0f4014fb 	jal	9d0053ec <__shgetc>
9d002c2c:	02002025 	move	a0,s0
9d002c30:	1000ff34 	b	9d002904 <__intscan+0x374>
9d002c34:	02821021 	addu	v0,s4,v0
9d002c38:	14400007 	bnez	v0,9d002c58 <__intscan+0x6c8>
9d002c3c:	3c02a000 	lui	v0,0xa000
9d002c40:	16f2000a 	bne	s7,s2,9d002c6c <__intscan+0x6dc>
9d002c44:	2402ffff 	li	v0,-1
9d002c48:	0271102b 	sltu	v0,s3,s1
9d002c4c:	10400007 	beqz	v0,9d002c6c <__intscan+0x6dc>
9d002c50:	2402ffff 	li	v0,-1
9d002c54:	3c02a000 	lui	v0,0xa000
9d002c58:	24030022 	li	v1,34
9d002c5c:	ac43035c 	sw	v1,860(v0)
9d002c60:	02608825 	move	s1,s3
9d002c64:	1000feb3 	b	9d002734 <__intscan+0x1a4>
9d002c68:	0240b825 	move	s7,s2
9d002c6c:	16a2feb2 	bne	s5,v0,9d002738 <__intscan+0x1a8>
9d002c70:	8fbf0044 	lw	ra,68(sp)
9d002c74:	00118823 	negu	s1,s1
9d002c78:	0011102b 	sltu	v0,zero,s1
9d002c7c:	00173823 	negu	a3,s7
9d002c80:	1000fead 	b	9d002738 <__intscan+0x1a8>
9d002c84:	00e2b823 	subu	s7,a3,v0
9d002c88:	5680fea9 	bnezl	s4,9d002730 <__intscan+0x1a0>
9d002c8c:	00008825 	move	s1,zero
9d002c90:	1000fec1 	b	9d002798 <__intscan+0x208>
9d002c94:	00003025 	move	a2,zero

Disassembly of section .text.__printf_core:

9d002c98 <__printf_core>:
9d002c98:	27bdff18 	addiu	sp,sp,-232
9d002c9c:	afb500d8 	sw	s5,216(sp)
9d002ca0:	3c159d00 	lui	s5,0x9d00
9d002ca4:	afb600dc 	sw	s6,220(sp)
9d002ca8:	afb400d4 	sw	s4,212(sp)
9d002cac:	afb300d0 	sw	s3,208(sp)
9d002cb0:	afb200cc 	sw	s2,204(sp)
9d002cb4:	afb100c8 	sw	s1,200(sp)
9d002cb8:	afbf00e4 	sw	ra,228(sp)
9d002cbc:	afb700e0 	sw	s7,224(sp)
9d002cc0:	afb000c4 	sw	s0,196(sp)
9d002cc4:	00809025 	move	s2,a0
9d002cc8:	00c08825 	move	s1,a2
9d002ccc:	afa500b0 	sw	a1,176(sp)
9d002cd0:	00009825 	move	s3,zero
9d002cd4:	27b60010 	addiu	s6,sp,16
9d002cd8:	24140025 	li	s4,37
9d002cdc:	26b51e24 	addiu	s5,s5,7716
9d002ce0:	8fa500b0 	lw	a1,176(sp)
9d002ce4:	80a20000 	lb	v0,0(a1)
9d002ce8:	104000e5 	beqz	v0,9d003080 <__printf_core+0x3e8>
9d002cec:	2402ffff 	li	v0,-1
9d002cf0:	afa20094 	sw	v0,148(sp)
9d002cf4:	24020080 	li	v0,128
9d002cf8:	afa00090 	sw	zero,144(sp)
9d002cfc:	afa00098 	sw	zero,152(sp)
9d002d00:	afb6009c 	sw	s6,156(sp)
9d002d04:	afa200a0 	sw	v0,160(sp)
9d002d08:	00008025 	move	s0,zero
9d002d0c:	00b01021 	addu	v0,a1,s0
9d002d10:	80420000 	lb	v0,0(v0)
9d002d14:	10400003 	beqz	v0,9d002d24 <__printf_core+0x8c>
9d002d18:	00000000 	nop
9d002d1c:	5454fffb 	bnel	v0,s4,9d002d0c <__printf_core+0x74>
9d002d20:	26100001 	addiu	s0,s0,1
9d002d24:	12000008 	beqz	s0,9d002d48 <__printf_core+0xb0>
9d002d28:	8fb700b0 	lw	s7,176(sp)
9d002d2c:	02003025 	move	a2,s0
9d002d30:	0f4019fb 	jal	9d0067ec <__out>
9d002d34:	02402025 	move	a0,s2
9d002d38:	8fa200b0 	lw	v0,176(sp)
9d002d3c:	00501021 	addu	v0,v0,s0
9d002d40:	afa200b0 	sw	v0,176(sp)
9d002d44:	8fb700b0 	lw	s7,176(sp)
9d002d48:	82e20000 	lb	v0,0(s7)
9d002d4c:	545400c5 	bnel	v0,s4,9d003064 <__printf_core+0x3cc>
9d002d50:	02708021 	addu	s0,s3,s0
9d002d54:	26f70001 	addiu	s7,s7,1
9d002d58:	afb700b0 	sw	s7,176(sp)
9d002d5c:	2405002b 	li	a1,43
9d002d60:	2406002d 	li	a2,45
9d002d64:	24030030 	li	v1,48
9d002d68:	24070020 	li	a3,32
9d002d6c:	24080023 	li	t0,35
9d002d70:	8fa400b0 	lw	a0,176(sp)
9d002d74:	80820000 	lb	v0,0(a0)
9d002d78:	5045001b 	beql	v0,a1,9d002de8 <__printf_core+0x150>
9d002d7c:	8fa20090 	lw	v0,144(sp)
9d002d80:	2849002c 	slti	t1,v0,44
9d002d84:	1120001e 	beqz	t1,9d002e00 <__printf_core+0x168>
9d002d88:	00000000 	nop
9d002d8c:	50470018 	beql	v0,a3,9d002df0 <__printf_core+0x158>
9d002d90:	8fa20090 	lw	v0,144(sp)
9d002d94:	50480018 	beql	v0,t0,9d002df8 <__printf_core+0x160>
9d002d98:	8fa20090 	lw	v0,144(sp)
9d002d9c:	2403002a 	li	v1,42
9d002da0:	5043001e 	beql	v0,v1,9d002e1c <__printf_core+0x184>
9d002da4:	8e220000 	lw	v0,0(s1)
9d002da8:	0f401a62 	jal	9d006988 <atoi>
9d002dac:	00000000 	nop
9d002db0:	afa20098 	sw	v0,152(sp)
9d002db4:	8fa300b0 	lw	v1,176(sp)
9d002db8:	80620000 	lb	v0,0(v1)
9d002dbc:	2442ffd0 	addiu	v0,v0,-48
9d002dc0:	2c42000a 	sltiu	v0,v0,10
9d002dc4:	10400021 	beqz	v0,9d002e4c <__printf_core+0x1b4>
9d002dc8:	24630001 	addiu	v1,v1,1
9d002dcc:	1000fff9 	b	9d002db4 <__printf_core+0x11c>
9d002dd0:	afa300b0 	sw	v1,176(sp)
9d002dd4:	34420001 	ori	v0,v0,0x1
9d002dd8:	24840001 	addiu	a0,a0,1
9d002ddc:	afa20090 	sw	v0,144(sp)
9d002de0:	1000ffe3 	b	9d002d70 <__printf_core+0xd8>
9d002de4:	afa400b0 	sw	a0,176(sp)
9d002de8:	1000fffb 	b	9d002dd8 <__printf_core+0x140>
9d002dec:	34420004 	ori	v0,v0,0x4
9d002df0:	1000fff9 	b	9d002dd8 <__printf_core+0x140>
9d002df4:	34420008 	ori	v0,v0,0x8
9d002df8:	1000fff7 	b	9d002dd8 <__printf_core+0x140>
9d002dfc:	34420010 	ori	v0,v0,0x10
9d002e00:	5046fff4 	beql	v0,a2,9d002dd4 <__printf_core+0x13c>
9d002e04:	8fa20090 	lw	v0,144(sp)
9d002e08:	5443ffe5 	bnel	v0,v1,9d002da0 <__printf_core+0x108>
9d002e0c:	2403002a 	li	v1,42
9d002e10:	8fa20090 	lw	v0,144(sp)
9d002e14:	1000fff0 	b	9d002dd8 <__printf_core+0x140>
9d002e18:	34420002 	ori	v0,v0,0x2
9d002e1c:	24840001 	addiu	a0,a0,1
9d002e20:	afa400b0 	sw	a0,176(sp)
9d002e24:	24430004 	addiu	v1,v0,4
9d002e28:	8c420000 	lw	v0,0(v0)
9d002e2c:	ae230000 	sw	v1,0(s1)
9d002e30:	04410006 	bgez	v0,9d002e4c <__printf_core+0x1b4>
9d002e34:	afa20098 	sw	v0,152(sp)
9d002e38:	8fa30090 	lw	v1,144(sp)
9d002e3c:	00021023 	negu	v0,v0
9d002e40:	afa20098 	sw	v0,152(sp)
9d002e44:	38630001 	xori	v1,v1,0x1
9d002e48:	afa30090 	sw	v1,144(sp)
9d002e4c:	8fa20090 	lw	v0,144(sp)
9d002e50:	30430001 	andi	v1,v0,0x1
9d002e54:	50600004 	beqzl	v1,9d002e68 <__printf_core+0x1d0>
9d002e58:	8fa200b0 	lw	v0,176(sp)
9d002e5c:	7c020844 	ins	v0,zero,0x1,0x1
9d002e60:	afa20090 	sw	v0,144(sp)
9d002e64:	8fa200b0 	lw	v0,176(sp)
9d002e68:	2403002e 	li	v1,46
9d002e6c:	80440000 	lb	a0,0(v0)
9d002e70:	1483000d 	bne	a0,v1,9d002ea8 <__printf_core+0x210>
9d002e74:	24440001 	addiu	a0,v0,1
9d002e78:	afa00094 	sw	zero,148(sp)
9d002e7c:	afa400b0 	sw	a0,176(sp)
9d002e80:	80450001 	lb	a1,1(v0)
9d002e84:	2403002a 	li	v1,42
9d002e88:	14a30024 	bne	a1,v1,9d002f1c <__printf_core+0x284>
9d002e8c:	24420002 	addiu	v0,v0,2
9d002e90:	afa200b0 	sw	v0,176(sp)
9d002e94:	8e220000 	lw	v0,0(s1)
9d002e98:	24430004 	addiu	v1,v0,4
9d002e9c:	8c420000 	lw	v0,0(v0)
9d002ea0:	ae230000 	sw	v1,0(s1)
9d002ea4:	afa20094 	sw	v0,148(sp)
9d002ea8:	0f401be7 	jal	9d006f9c <__fmt_state>
9d002eac:	27a400b0 	addiu	a0,sp,176
9d002eb0:	afa200b8 	sw	v0,184(sp)
9d002eb4:	8fa200b0 	lw	v0,176(sp)
9d002eb8:	0f401eb4 	jal	9d007ad0 <tolower>
9d002ebc:	80440000 	lb	a0,0(v0)
9d002ec0:	24030069 	li	v1,105
9d002ec4:	1043007a 	beq	v0,v1,9d0030b0 <__printf_core+0x418>
9d002ec8:	8fa500b8 	lw	a1,184(sp)
9d002ecc:	2843006a 	slti	v1,v0,106
9d002ed0:	1060002f 	beqz	v1,9d002f90 <__printf_core+0x2f8>
9d002ed4:	24030070 	li	v1,112
9d002ed8:	24030063 	li	v1,99
9d002edc:	104300bc 	beq	v0,v1,9d0031d0 <__printf_core+0x538>
9d002ee0:	28430064 	slti	v1,v0,100
9d002ee4:	10600018 	beqz	v1,9d002f48 <__printf_core+0x2b0>
9d002ee8:	24030064 	li	v1,100
9d002eec:	105400c5 	beq	v0,s4,9d003204 <__printf_core+0x56c>
9d002ef0:	24030061 	li	v1,97
9d002ef4:	5043004e 	beql	v0,v1,9d003030 <__printf_core+0x398>
9d002ef8:	02203025 	move	a2,s1
9d002efc:	24020025 	li	v0,37
9d002f00:	a3a200a8 	sb	v0,168(sp)
9d002f04:	2402ffff 	li	v0,-1
9d002f08:	afb700b0 	sw	s7,176(sp)
9d002f0c:	afa00090 	sw	zero,144(sp)
9d002f10:	afa00098 	sw	zero,152(sp)
9d002f14:	100000b8 	b	9d0031f8 <__printf_core+0x560>
9d002f18:	afa20094 	sw	v0,148(sp)
9d002f1c:	0f401a62 	jal	9d006988 <atoi>
9d002f20:	00000000 	nop
9d002f24:	afa20094 	sw	v0,148(sp)
9d002f28:	8fa300b0 	lw	v1,176(sp)
9d002f2c:	80620000 	lb	v0,0(v1)
9d002f30:	2442ffd0 	addiu	v0,v0,-48
9d002f34:	2c42000a 	sltiu	v0,v0,10
9d002f38:	1040ffdb 	beqz	v0,9d002ea8 <__printf_core+0x210>
9d002f3c:	24630001 	addiu	v1,v1,1
9d002f40:	1000fff9 	b	9d002f28 <__printf_core+0x290>
9d002f44:	afa300b0 	sw	v1,176(sp)
9d002f48:	10430059 	beq	v0,v1,9d0030b0 <__printf_core+0x418>
9d002f4c:	28420068 	slti	v0,v0,104
9d002f50:	1040ffeb 	beqz	v0,9d002f00 <__printf_core+0x268>
9d002f54:	24020025 	li	v0,37
9d002f58:	02203025 	move	a2,s1
9d002f5c:	0f401c81 	jal	9d007204 <__pop_float>
9d002f60:	27a400a8 	addiu	a0,sp,168
9d002f64:	10400097 	beqz	v0,9d0031c4 <__printf_core+0x52c>
9d002f68:	8fa200b0 	lw	v0,176(sp)
9d002f6c:	27a600a8 	addiu	a2,sp,168
9d002f70:	27a50090 	addiu	a1,sp,144
9d002f74:	24430001 	addiu	v1,v0,1
9d002f78:	afa300b0 	sw	v1,176(sp)
9d002f7c:	80470000 	lb	a3,0(v0)
9d002f80:	0f401f21 	jal	9d007c84 <__fmt_a>
9d002f84:	02402025 	move	a0,s2
9d002f88:	10000035 	b	9d003060 <__printf_core+0x3c8>
9d002f8c:	02028021 	addu	s0,s0,v0
9d002f90:	10430072 	beq	v0,v1,9d00315c <__printf_core+0x4c4>
9d002f94:	28430071 	slti	v1,v0,113
9d002f98:	10600014 	beqz	v1,9d002fec <__printf_core+0x354>
9d002f9c:	24030075 	li	v1,117
9d002fa0:	2403006e 	li	v1,110
9d002fa4:	10430082 	beq	v0,v1,9d0031b0 <__printf_core+0x518>
9d002fa8:	2403006f 	li	v1,111
9d002fac:	1443ffd4 	bne	v0,v1,9d002f00 <__printf_core+0x268>
9d002fb0:	24020025 	li	v0,37
9d002fb4:	02203825 	move	a3,s1
9d002fb8:	00003025 	move	a2,zero
9d002fbc:	0f4011a7 	jal	9d00469c <__pop_int>
9d002fc0:	27a400a8 	addiu	a0,sp,168
9d002fc4:	1040007f 	beqz	v0,9d0031c4 <__printf_core+0x52c>
9d002fc8:	8fa200b0 	lw	v0,176(sp)
9d002fcc:	27a600a8 	addiu	a2,sp,168
9d002fd0:	27a50090 	addiu	a1,sp,144
9d002fd4:	24420001 	addiu	v0,v0,1
9d002fd8:	02402025 	move	a0,s2
9d002fdc:	0f401695 	jal	9d005a54 <__fmt_o>
9d002fe0:	afa200b0 	sw	v0,176(sp)
9d002fe4:	1000001e 	b	9d003060 <__printf_core+0x3c8>
9d002fe8:	02028021 	addu	s0,s0,v0
9d002fec:	1043003e 	beq	v0,v1,9d0030e8 <__printf_core+0x450>
9d002ff0:	24030078 	li	v1,120
9d002ff4:	1043004a 	beq	v0,v1,9d003120 <__printf_core+0x488>
9d002ff8:	24030073 	li	v1,115
9d002ffc:	1443ffc0 	bne	v0,v1,9d002f00 <__printf_core+0x268>
9d003000:	24020025 	li	v0,37
9d003004:	24020080 	li	v0,128
9d003008:	14a2006e 	bne	a1,v0,9d0031c4 <__printf_core+0x52c>
9d00300c:	8fa200b0 	lw	v0,176(sp)
9d003010:	00003825 	move	a3,zero
9d003014:	24420001 	addiu	v0,v0,1
9d003018:	afa200b0 	sw	v0,176(sp)
9d00301c:	8e220000 	lw	v0,0(s1)
9d003020:	24430004 	addiu	v1,v0,4
9d003024:	ae230000 	sw	v1,0(s1)
9d003028:	1000005c 	b	9d00319c <__printf_core+0x504>
9d00302c:	8c460000 	lw	a2,0(v0)
9d003030:	0f401c81 	jal	9d007204 <__pop_float>
9d003034:	27a400a8 	addiu	a0,sp,168
9d003038:	10400062 	beqz	v0,9d0031c4 <__printf_core+0x52c>
9d00303c:	8fa200b0 	lw	v0,176(sp)
9d003040:	27a600a8 	addiu	a2,sp,168
9d003044:	27a50090 	addiu	a1,sp,144
9d003048:	24430001 	addiu	v1,v0,1
9d00304c:	afa300b0 	sw	v1,176(sp)
9d003050:	80470000 	lb	a3,0(v0)
9d003054:	0f401f21 	jal	9d007c84 <__fmt_a>
9d003058:	02402025 	move	a0,s2
9d00305c:	02028021 	addu	s0,s0,v0
9d003060:	02708021 	addu	s0,s3,s0
9d003064:	0213982a 	slt	s3,s0,s3
9d003068:	1260ff1d 	beqz	s3,9d002ce0 <__printf_core+0x48>
9d00306c:	02009825 	move	s3,s0
9d003070:	3c02a000 	lui	v0,0xa000
9d003074:	2403004f 	li	v1,79
9d003078:	ac43035c 	sw	v1,860(v0)
9d00307c:	2413ffff 	li	s3,-1
9d003080:	8fbf00e4 	lw	ra,228(sp)
9d003084:	02601025 	move	v0,s3
9d003088:	8fb700e0 	lw	s7,224(sp)
9d00308c:	8fb600dc 	lw	s6,220(sp)
9d003090:	8fb500d8 	lw	s5,216(sp)
9d003094:	8fb400d4 	lw	s4,212(sp)
9d003098:	8fb300d0 	lw	s3,208(sp)
9d00309c:	8fb200cc 	lw	s2,204(sp)
9d0030a0:	8fb100c8 	lw	s1,200(sp)
9d0030a4:	8fb000c4 	lw	s0,196(sp)
9d0030a8:	03e00008 	jr	ra
9d0030ac:	27bd00e8 	addiu	sp,sp,232
9d0030b0:	02203825 	move	a3,s1
9d0030b4:	24060001 	li	a2,1
9d0030b8:	0f4011a7 	jal	9d00469c <__pop_int>
9d0030bc:	27a400a8 	addiu	a0,sp,168
9d0030c0:	10400040 	beqz	v0,9d0031c4 <__printf_core+0x52c>
9d0030c4:	8fa200b0 	lw	v0,176(sp)
9d0030c8:	27a600a8 	addiu	a2,sp,168
9d0030cc:	27a50090 	addiu	a1,sp,144
9d0030d0:	24420001 	addiu	v0,v0,1
9d0030d4:	02402025 	move	a0,s2
9d0030d8:	0f4012bc 	jal	9d004af0 <__fmt_d>
9d0030dc:	afa200b0 	sw	v0,176(sp)
9d0030e0:	1000ffdf 	b	9d003060 <__printf_core+0x3c8>
9d0030e4:	02028021 	addu	s0,s0,v0
9d0030e8:	02203825 	move	a3,s1
9d0030ec:	00003025 	move	a2,zero
9d0030f0:	0f4011a7 	jal	9d00469c <__pop_int>
9d0030f4:	27a400a8 	addiu	a0,sp,168
9d0030f8:	10400032 	beqz	v0,9d0031c4 <__printf_core+0x52c>
9d0030fc:	8fa200b0 	lw	v0,176(sp)
9d003100:	27a600a8 	addiu	a2,sp,168
9d003104:	27a50090 	addiu	a1,sp,144
9d003108:	24420001 	addiu	v0,v0,1
9d00310c:	02402025 	move	a0,s2
9d003110:	0f4017e2 	jal	9d005f88 <__fmt_u>
9d003114:	afa200b0 	sw	v0,176(sp)
9d003118:	1000ffd1 	b	9d003060 <__printf_core+0x3c8>
9d00311c:	02028021 	addu	s0,s0,v0
9d003120:	02203825 	move	a3,s1
9d003124:	00003025 	move	a2,zero
9d003128:	0f4011a7 	jal	9d00469c <__pop_int>
9d00312c:	27a400a8 	addiu	a0,sp,168
9d003130:	10400024 	beqz	v0,9d0031c4 <__printf_core+0x52c>
9d003134:	8fa200b0 	lw	v0,176(sp)
9d003138:	24430001 	addiu	v1,v0,1
9d00313c:	afa300b0 	sw	v1,176(sp)
9d003140:	80470000 	lb	a3,0(v0)
9d003144:	27a600a8 	addiu	a2,sp,168
9d003148:	27a50090 	addiu	a1,sp,144
9d00314c:	0f400fd5 	jal	9d003f54 <__fmt_x>
9d003150:	02402025 	move	a0,s2
9d003154:	1000ffc2 	b	9d003060 <__printf_core+0x3c8>
9d003158:	02028021 	addu	s0,s0,v0
9d00315c:	02203825 	move	a3,s1
9d003160:	00003025 	move	a2,zero
9d003164:	240500f0 	li	a1,240
9d003168:	0f4011a7 	jal	9d00469c <__pop_int>
9d00316c:	27a400a8 	addiu	a0,sp,168
9d003170:	10400014 	beqz	v0,9d0031c4 <__printf_core+0x52c>
9d003174:	8fa200b0 	lw	v0,176(sp)
9d003178:	8fa300ac 	lw	v1,172(sp)
9d00317c:	24420001 	addiu	v0,v0,1
9d003180:	afa200b0 	sw	v0,176(sp)
9d003184:	8fa200a8 	lw	v0,168(sp)
9d003188:	00431025 	or	v0,v0,v1
9d00318c:	1440ffed 	bnez	v0,9d003144 <__printf_core+0x4ac>
9d003190:	24070078 	li	a3,120
9d003194:	00003825 	move	a3,zero
9d003198:	02a03025 	move	a2,s5
9d00319c:	27a50090 	addiu	a1,sp,144
9d0031a0:	0f4018c3 	jal	9d00630c <__fmt_s>
9d0031a4:	02402025 	move	a0,s2
9d0031a8:	1000ffad 	b	9d003060 <__printf_core+0x3c8>
9d0031ac:	02028021 	addu	s0,s0,v0
9d0031b0:	02203825 	move	a3,s1
9d0031b4:	02703021 	addu	a2,s3,s0
9d0031b8:	0f4016d4 	jal	9d005b50 <__pop_ptr>
9d0031bc:	27a400a8 	addiu	a0,sp,168
9d0031c0:	8fa200b0 	lw	v0,176(sp)
9d0031c4:	24420001 	addiu	v0,v0,1
9d0031c8:	1000ffa5 	b	9d003060 <__printf_core+0x3c8>
9d0031cc:	afa200b0 	sw	v0,176(sp)
9d0031d0:	24020080 	li	v0,128
9d0031d4:	14a2fffb 	bne	a1,v0,9d0031c4 <__printf_core+0x52c>
9d0031d8:	8fa200b0 	lw	v0,176(sp)
9d0031dc:	24420001 	addiu	v0,v0,1
9d0031e0:	afa200b0 	sw	v0,176(sp)
9d0031e4:	8e220000 	lw	v0,0(s1)
9d0031e8:	24430004 	addiu	v1,v0,4
9d0031ec:	8c420000 	lw	v0,0(v0)
9d0031f0:	ae230000 	sw	v1,0(s1)
9d0031f4:	a3a200a8 	sb	v0,168(sp)
9d0031f8:	24070001 	li	a3,1
9d0031fc:	1000ffe7 	b	9d00319c <__printf_core+0x504>
9d003200:	27a600a8 	addiu	a2,sp,168
9d003204:	24020080 	li	v0,128
9d003208:	14a2ffee 	bne	a1,v0,9d0031c4 <__printf_core+0x52c>
9d00320c:	8fa200b0 	lw	v0,176(sp)
9d003210:	a3b400a8 	sb	s4,168(sp)
9d003214:	24420001 	addiu	v0,v0,1
9d003218:	1000fff7 	b	9d0031f8 <__printf_core+0x560>
9d00321c:	afa200b0 	sw	v0,176(sp)

Disassembly of section .text:

9d003220 <__umoddi3>:
9d003220:	00c04825 	move	t1,a2
9d003224:	00801025 	move	v0,a0
9d003228:	14e00099 	bnez	a3,9d003490 <__umoddi3+0x270>
9d00322c:	00a01825 	move	v1,a1
9d003230:	00a6302b 	sltu	a2,a1,a2
9d003234:	10c00034 	beqz	a2,9d003308 <__umoddi3+0xe8>
9d003238:	712a5020 	clz	t2,t1
9d00323c:	51400008 	beqzl	t2,9d003260 <__umoddi3+0x40>
9d003240:	00092402 	srl	a0,t1,0x10
9d003244:	01451804 	sllv	v1,a1,t2
9d003248:	000a2823 	negu	a1,t2
9d00324c:	00a42806 	srlv	a1,a0,a1
9d003250:	01494804 	sllv	t1,t1,t2
9d003254:	00a31825 	or	v1,a1,v1
9d003258:	01441004 	sllv	v0,a0,t2
9d00325c:	00092402 	srl	a0,t1,0x10
9d003260:	0064001b 	divu	zero,v1,a0
9d003264:	008001f4 	teq	a0,zero,0x7
9d003268:	3127ffff 	andi	a3,t1,0xffff
9d00326c:	00001812 	mflo	v1
9d003270:	00002810 	mfhi	a1
9d003274:	70673002 	mul	a2,v1,a3
9d003278:	00051c00 	sll	v1,a1,0x10
9d00327c:	00022c02 	srl	a1,v0,0x10
9d003280:	00651825 	or	v1,v1,a1
9d003284:	0066282b 	sltu	a1,v1,a2
9d003288:	50a00009 	beqzl	a1,9d0032b0 <__umoddi3+0x90>
9d00328c:	00661823 	subu	v1,v1,a2
9d003290:	00691821 	addu	v1,v1,t1
9d003294:	0069282b 	sltu	a1,v1,t1
9d003298:	54a00005 	bnezl	a1,9d0032b0 <__umoddi3+0x90>
9d00329c:	00661823 	subu	v1,v1,a2
9d0032a0:	0066282b 	sltu	a1,v1,a2
9d0032a4:	54a00001 	bnezl	a1,9d0032ac <__umoddi3+0x8c>
9d0032a8:	00691821 	addu	v1,v1,t1
9d0032ac:	00661823 	subu	v1,v1,a2
9d0032b0:	0064001b 	divu	zero,v1,a0
9d0032b4:	008001f4 	teq	a0,zero,0x7
9d0032b8:	3042ffff 	andi	v0,v0,0xffff
9d0032bc:	00001812 	mflo	v1
9d0032c0:	00003010 	mfhi	a2
9d0032c4:	70672002 	mul	a0,v1,a3
9d0032c8:	00061c00 	sll	v1,a2,0x10
9d0032cc:	00621025 	or	v0,v1,v0
9d0032d0:	0044182b 	sltu	v1,v0,a0
9d0032d4:	50600009 	beqzl	v1,9d0032fc <__umoddi3+0xdc>
9d0032d8:	00441023 	subu	v0,v0,a0
9d0032dc:	00491021 	addu	v0,v0,t1
9d0032e0:	0049182b 	sltu	v1,v0,t1
9d0032e4:	54600005 	bnezl	v1,9d0032fc <__umoddi3+0xdc>
9d0032e8:	00441023 	subu	v0,v0,a0
9d0032ec:	0044182b 	sltu	v1,v0,a0
9d0032f0:	54600001 	bnezl	v1,9d0032f8 <__umoddi3+0xd8>
9d0032f4:	00491021 	addu	v0,v0,t1
9d0032f8:	00441023 	subu	v0,v0,a0
9d0032fc:	01421006 	srlv	v0,v0,t2
9d003300:	03e00008 	jr	ra
9d003304:	00001825 	move	v1,zero
9d003308:	15200005 	bnez	t1,9d003320 <__umoddi3+0x100>
9d00330c:	24030001 	li	v1,1
9d003310:	0069001b 	divu	zero,v1,t1
9d003314:	012001f4 	teq	t1,zero,0x7
9d003318:	00004812 	mflo	t1
9d00331c:	712a5020 	clz	t2,t1
9d003320:	1540002b 	bnez	t2,9d0033d0 <__umoddi3+0x1b0>
9d003324:	24070020 	li	a3,32
9d003328:	00a92823 	subu	a1,a1,t1
9d00332c:	00092402 	srl	a0,t1,0x10
9d003330:	00a4001b 	divu	zero,a1,a0
9d003334:	008001f4 	teq	a0,zero,0x7
9d003338:	3127ffff 	andi	a3,t1,0xffff
9d00333c:	00002812 	mflo	a1
9d003340:	00001810 	mfhi	v1
9d003344:	70a73002 	mul	a2,a1,a3
9d003348:	00032c00 	sll	a1,v1,0x10
9d00334c:	00021c02 	srl	v1,v0,0x10
9d003350:	00a32825 	or	a1,a1,v1
9d003354:	00a6182b 	sltu	v1,a1,a2
9d003358:	50600009 	beqzl	v1,9d003380 <__umoddi3+0x160>
9d00335c:	00a63023 	subu	a2,a1,a2
9d003360:	00a92821 	addu	a1,a1,t1
9d003364:	00a9182b 	sltu	v1,a1,t1
9d003368:	54600005 	bnezl	v1,9d003380 <__umoddi3+0x160>
9d00336c:	00a63023 	subu	a2,a1,a2
9d003370:	00a6182b 	sltu	v1,a1,a2
9d003374:	54600001 	bnezl	v1,9d00337c <__umoddi3+0x15c>
9d003378:	00a92821 	addu	a1,a1,t1
9d00337c:	00a63023 	subu	a2,a1,a2
9d003380:	00c4001b 	divu	zero,a2,a0
9d003384:	008001f4 	teq	a0,zero,0x7
9d003388:	3042ffff 	andi	v0,v0,0xffff
9d00338c:	00003012 	mflo	a2
9d003390:	00002810 	mfhi	a1
9d003394:	70c71802 	mul	v1,a2,a3
9d003398:	00053400 	sll	a2,a1,0x10
9d00339c:	00c21025 	or	v0,a2,v0
9d0033a0:	0043202b 	sltu	a0,v0,v1
9d0033a4:	5080ffd5 	beqzl	a0,9d0032fc <__umoddi3+0xdc>
9d0033a8:	00431023 	subu	v0,v0,v1
9d0033ac:	00491021 	addu	v0,v0,t1
9d0033b0:	0049202b 	sltu	a0,v0,t1
9d0033b4:	5480ffd1 	bnezl	a0,9d0032fc <__umoddi3+0xdc>
9d0033b8:	00431023 	subu	v0,v0,v1
9d0033bc:	0043202b 	sltu	a0,v0,v1
9d0033c0:	54800001 	bnezl	a0,9d0033c8 <__umoddi3+0x1a8>
9d0033c4:	00491021 	addu	v0,v0,t1
9d0033c8:	1000ffcc 	b	9d0032fc <__umoddi3+0xdc>
9d0033cc:	00431023 	subu	v0,v0,v1
9d0033d0:	00ea3823 	subu	a3,a3,t2
9d0033d4:	01494804 	sllv	t1,t1,t2
9d0033d8:	00e41806 	srlv	v1,a0,a3
9d0033dc:	00093402 	srl	a2,t1,0x10
9d0033e0:	00e53806 	srlv	a3,a1,a3
9d0033e4:	00e6001b 	divu	zero,a3,a2
9d0033e8:	00c001f4 	teq	a2,zero,0x7
9d0033ec:	01451004 	sllv	v0,a1,t2
9d0033f0:	312bffff 	andi	t3,t1,0xffff
9d0033f4:	00621825 	or	v1,v1,v0
9d0033f8:	01441004 	sllv	v0,a0,t2
9d0033fc:	00032c02 	srl	a1,v1,0x10
9d003400:	00003812 	mflo	a3
9d003404:	00002010 	mfhi	a0
9d003408:	70eb4002 	mul	t0,a3,t3
9d00340c:	00043c00 	sll	a3,a0,0x10
9d003410:	00e53825 	or	a3,a3,a1
9d003414:	00e8202b 	sltu	a0,a3,t0
9d003418:	50800009 	beqzl	a0,9d003440 <__umoddi3+0x220>
9d00341c:	00e83823 	subu	a3,a3,t0
9d003420:	00e93821 	addu	a3,a3,t1
9d003424:	00e9202b 	sltu	a0,a3,t1
9d003428:	54800005 	bnezl	a0,9d003440 <__umoddi3+0x220>
9d00342c:	00e83823 	subu	a3,a3,t0
9d003430:	00e8202b 	sltu	a0,a3,t0
9d003434:	54800001 	bnezl	a0,9d00343c <__umoddi3+0x21c>
9d003438:	00e93821 	addu	a3,a3,t1
9d00343c:	00e83823 	subu	a3,a3,t0
9d003440:	00e6001b 	divu	zero,a3,a2
9d003444:	00c001f4 	teq	a2,zero,0x7
9d003448:	3065ffff 	andi	a1,v1,0xffff
9d00344c:	00003012 	mflo	a2
9d003450:	00003810 	mfhi	a3
9d003454:	00073c00 	sll	a3,a3,0x10
9d003458:	00e52825 	or	a1,a3,a1
9d00345c:	70cb3002 	mul	a2,a2,t3
9d003460:	00a6182b 	sltu	v1,a1,a2
9d003464:	5060ffb1 	beqzl	v1,9d00332c <__umoddi3+0x10c>
9d003468:	00a62823 	subu	a1,a1,a2
9d00346c:	00a92821 	addu	a1,a1,t1
9d003470:	00a9182b 	sltu	v1,a1,t1
9d003474:	5460ffad 	bnezl	v1,9d00332c <__umoddi3+0x10c>
9d003478:	00a62823 	subu	a1,a1,a2
9d00347c:	00a6182b 	sltu	v1,a1,a2
9d003480:	54600001 	bnezl	v1,9d003488 <__umoddi3+0x268>
9d003484:	00a92821 	addu	a1,a1,t1
9d003488:	1000ffa8 	b	9d00332c <__umoddi3+0x10c>
9d00348c:	00a62823 	subu	a1,a1,a2
9d003490:	00a7402b 	sltu	t0,a1,a3
9d003494:	1500005e 	bnez	t0,9d003610 <__umoddi3+0x3f0>
9d003498:	70ee7020 	clz	t6,a3
9d00349c:	15c0000c 	bnez	t6,9d0034d0 <__umoddi3+0x2b0>
9d0034a0:	240b0020 	li	t3,32
9d0034a4:	00e5402b 	sltu	t0,a3,a1
9d0034a8:	55000005 	bnezl	t0,9d0034c0 <__umoddi3+0x2a0>
9d0034ac:	00861023 	subu	v0,a0,a2
9d0034b0:	0086402b 	sltu	t0,a0,a2
9d0034b4:	15000056 	bnez	t0,9d003610 <__umoddi3+0x3f0>
9d0034b8:	00000000 	nop
9d0034bc:	00861023 	subu	v0,a0,a2
9d0034c0:	00a72823 	subu	a1,a1,a3
9d0034c4:	0082182b 	sltu	v1,a0,v0
9d0034c8:	03e00008 	jr	ra
9d0034cc:	00a31823 	subu	v1,a1,v1
9d0034d0:	016e5823 	subu	t3,t3,t6
9d0034d4:	01666006 	srlv	t4,a2,t3
9d0034d8:	01c73804 	sllv	a3,a3,t6
9d0034dc:	01873825 	or	a3,t4,a3
9d0034e0:	01c51804 	sllv	v1,a1,t6
9d0034e4:	00074c02 	srl	t1,a3,0x10
9d0034e8:	01652806 	srlv	a1,a1,t3
9d0034ec:	00a9001b 	divu	zero,a1,t1
9d0034f0:	012001f4 	teq	t1,zero,0x7
9d0034f4:	01c61004 	sllv	v0,a2,t6
9d0034f8:	30e8ffff 	andi	t0,a3,0xffff
9d0034fc:	01643006 	srlv	a2,a0,t3
9d003500:	00c33025 	or	a2,a2,v1
9d003504:	00066402 	srl	t4,a2,0x10
9d003508:	01c42004 	sllv	a0,a0,t6
9d00350c:	00002812 	mflo	a1
9d003510:	00005010 	mfhi	t2
9d003514:	000a5400 	sll	t2,t2,0x10
9d003518:	014c5025 	or	t2,t2,t4
9d00351c:	71051802 	mul	v1,t0,a1
9d003520:	0143602b 	sltu	t4,t2,v1
9d003524:	1180000a 	beqz	t4,9d003550 <__umoddi3+0x330>
9d003528:	00a06825 	move	t5,a1
9d00352c:	01475021 	addu	t2,t2,a3
9d003530:	0147602b 	sltu	t4,t2,a3
9d003534:	15800006 	bnez	t4,9d003550 <__umoddi3+0x330>
9d003538:	24adffff 	addiu	t5,a1,-1
9d00353c:	0143602b 	sltu	t4,t2,v1
9d003540:	51800004 	beqzl	t4,9d003554 <__umoddi3+0x334>
9d003544:	01435023 	subu	t2,t2,v1
9d003548:	24adfffe 	addiu	t5,a1,-2
9d00354c:	01475021 	addu	t2,t2,a3
9d003550:	01435023 	subu	t2,t2,v1
9d003554:	0149001b 	divu	zero,t2,t1
9d003558:	012001f4 	teq	t1,zero,0x7
9d00355c:	00004812 	mflo	t1
9d003560:	00005010 	mfhi	t2
9d003564:	000a5400 	sll	t2,t2,0x10
9d003568:	71091802 	mul	v1,t0,t1
9d00356c:	30c8ffff 	andi	t0,a2,0xffff
9d003570:	01484025 	or	t0,t2,t0
9d003574:	0103302b 	sltu	a2,t0,v1
9d003578:	10c0000a 	beqz	a2,9d0035a4 <__umoddi3+0x384>
9d00357c:	01202825 	move	a1,t1
9d003580:	01074021 	addu	t0,t0,a3
9d003584:	0107302b 	sltu	a2,t0,a3
9d003588:	14c00006 	bnez	a2,9d0035a4 <__umoddi3+0x384>
9d00358c:	2525ffff 	addiu	a1,t1,-1
9d003590:	0103302b 	sltu	a2,t0,v1
9d003594:	10c00004 	beqz	a2,9d0035a8 <__umoddi3+0x388>
9d003598:	000d6400 	sll	t4,t5,0x10
9d00359c:	2525fffe 	addiu	a1,t1,-2
9d0035a0:	01074021 	addu	t0,t0,a3
9d0035a4:	000d6400 	sll	t4,t5,0x10
9d0035a8:	01856025 	or	t4,t4,a1
9d0035ac:	01820019 	multu	t4,v0
9d0035b0:	01034023 	subu	t0,t0,v1
9d0035b4:	00006810 	mfhi	t5
9d0035b8:	010d282b 	sltu	a1,t0,t5
9d0035bc:	01a01825 	move	v1,t5
9d0035c0:	00006012 	mflo	t4
9d0035c4:	14a00006 	bnez	a1,9d0035e0 <__umoddi3+0x3c0>
9d0035c8:	00003012 	mflo	a2
9d0035cc:	150d0009 	bne	t0,t5,9d0035f4 <__umoddi3+0x3d4>
9d0035d0:	00863023 	subu	a2,a0,a2
9d0035d4:	008c282b 	sltu	a1,a0,t4
9d0035d8:	50a00007 	beqzl	a1,9d0035f8 <__umoddi3+0x3d8>
9d0035dc:	01034023 	subu	t0,t0,v1
9d0035e0:	01823023 	subu	a2,t4,v0
9d0035e4:	01a73823 	subu	a3,t5,a3
9d0035e8:	0186602b 	sltu	t4,t4,a2
9d0035ec:	00ec1823 	subu	v1,a3,t4
9d0035f0:	00863023 	subu	a2,a0,a2
9d0035f4:	01034023 	subu	t0,t0,v1
9d0035f8:	0086182b 	sltu	v1,a0,a2
9d0035fc:	01031823 	subu	v1,t0,v1
9d003600:	01631004 	sllv	v0,v1,t3
9d003604:	01c63006 	srlv	a2,a2,t6
9d003608:	00461025 	or	v0,v0,a2
9d00360c:	01c31806 	srlv	v1,v1,t6
9d003610:	03e00008 	jr	ra
9d003614:	00000000 	nop

9d003618 <__udivdi3>:
9d003618:	00c04025 	move	t0,a2
9d00361c:	00e01825 	move	v1,a3
9d003620:	00805025 	move	t2,a0
9d003624:	14e000a3 	bnez	a3,9d0038b4 <__udivdi3+0x29c>
9d003628:	00a01025 	move	v0,a1
9d00362c:	00a6302b 	sltu	a2,a1,a2
9d003630:	10c00034 	beqz	a2,9d003704 <__udivdi3+0xec>
9d003634:	00000000 	nop
9d003638:	71052820 	clz	a1,t0
9d00363c:	50a00008 	beqzl	a1,9d003660 <__udivdi3+0x48>
9d003640:	00082c02 	srl	a1,t0,0x10
9d003644:	00052023 	negu	a0,a1
9d003648:	008a2006 	srlv	a0,t2,a0
9d00364c:	00a21004 	sllv	v0,v0,a1
9d003650:	00a84004 	sllv	t0,t0,a1
9d003654:	00821025 	or	v0,a0,v0
9d003658:	00aa5004 	sllv	t2,t2,a1
9d00365c:	00082c02 	srl	a1,t0,0x10
9d003660:	0045001b 	divu	zero,v0,a1
9d003664:	00a001f4 	teq	a1,zero,0x7
9d003668:	3107ffff 	andi	a3,t0,0xffff
9d00366c:	000a2402 	srl	a0,t2,0x10
9d003670:	00003012 	mflo	a2
9d003674:	00001010 	mfhi	v0
9d003678:	00021400 	sll	v0,v0,0x10
9d00367c:	00442025 	or	a0,v0,a0
9d003680:	70e64802 	mul	t1,a3,a2
9d003684:	0089582b 	sltu	t3,a0,t1
9d003688:	1160000a 	beqz	t3,9d0036b4 <__udivdi3+0x9c>
9d00368c:	00c01025 	move	v0,a2
9d003690:	00882021 	addu	a0,a0,t0
9d003694:	0088582b 	sltu	t3,a0,t0
9d003698:	15600006 	bnez	t3,9d0036b4 <__udivdi3+0x9c>
9d00369c:	24c2ffff 	addiu	v0,a2,-1
9d0036a0:	0089582b 	sltu	t3,a0,t1
9d0036a4:	51600004 	beqzl	t3,9d0036b8 <__udivdi3+0xa0>
9d0036a8:	00892023 	subu	a0,a0,t1
9d0036ac:	24c2fffe 	addiu	v0,a2,-2
9d0036b0:	00882021 	addu	a0,a0,t0
9d0036b4:	00892023 	subu	a0,a0,t1
9d0036b8:	0085001b 	divu	zero,a0,a1
9d0036bc:	00a001f4 	teq	a1,zero,0x7
9d0036c0:	314affff 	andi	t2,t2,0xffff
9d0036c4:	00002012 	mflo	a0
9d0036c8:	00002810 	mfhi	a1
9d0036cc:	00052c00 	sll	a1,a1,0x10
9d0036d0:	00aa5025 	or	t2,a1,t2
9d0036d4:	70e43802 	mul	a3,a3,a0
9d0036d8:	0147282b 	sltu	a1,t2,a3
9d0036dc:	10a00006 	beqz	a1,9d0036f8 <__udivdi3+0xe0>
9d0036e0:	00803025 	move	a2,a0
9d0036e4:	010a5021 	addu	t2,t0,t2
9d0036e8:	0148402b 	sltu	t0,t2,t0
9d0036ec:	2486ffff 	addiu	a2,a0,-1
9d0036f0:	11000036 	beqz	t0,9d0037cc <__udivdi3+0x1b4>
9d0036f4:	0147502b 	sltu	t2,t2,a3
9d0036f8:	00021400 	sll	v0,v0,0x10
9d0036fc:	03e00008 	jr	ra
9d003700:	00461025 	or	v0,v0,a2
9d003704:	15000006 	bnez	t0,9d003720 <__udivdi3+0x108>
9d003708:	71021020 	clz	v0,t0
9d00370c:	24020001 	li	v0,1
9d003710:	0048001b 	divu	zero,v0,t0
9d003714:	010001f4 	teq	t0,zero,0x7
9d003718:	00004012 	mflo	t0
9d00371c:	71021020 	clz	v0,t0
9d003720:	1440002e 	bnez	v0,9d0037dc <__udivdi3+0x1c4>
9d003724:	24090020 	li	t1,32
9d003728:	00a82823 	subu	a1,a1,t0
9d00372c:	24030001 	li	v1,1
9d003730:	00083402 	srl	a2,t0,0x10
9d003734:	00a6001b 	divu	zero,a1,a2
9d003738:	00c001f4 	teq	a2,zero,0x7
9d00373c:	3107ffff 	andi	a3,t0,0xffff
9d003740:	000a2402 	srl	a0,t2,0x10
9d003744:	00002812 	mflo	a1
9d003748:	00001010 	mfhi	v0
9d00374c:	00021400 	sll	v0,v0,0x10
9d003750:	00442025 	or	a0,v0,a0
9d003754:	70e54802 	mul	t1,a3,a1
9d003758:	0089582b 	sltu	t3,a0,t1
9d00375c:	1160000a 	beqz	t3,9d003788 <__udivdi3+0x170>
9d003760:	00a01025 	move	v0,a1
9d003764:	00882021 	addu	a0,a0,t0
9d003768:	0088582b 	sltu	t3,a0,t0
9d00376c:	15600006 	bnez	t3,9d003788 <__udivdi3+0x170>
9d003770:	24a2ffff 	addiu	v0,a1,-1
9d003774:	0089582b 	sltu	t3,a0,t1
9d003778:	51600004 	beqzl	t3,9d00378c <__udivdi3+0x174>
9d00377c:	00892023 	subu	a0,a0,t1
9d003780:	24a2fffe 	addiu	v0,a1,-2
9d003784:	00882021 	addu	a0,a0,t0
9d003788:	00892023 	subu	a0,a0,t1
9d00378c:	0086001b 	divu	zero,a0,a2
9d003790:	00c001f4 	teq	a2,zero,0x7
9d003794:	314affff 	andi	t2,t2,0xffff
9d003798:	00002012 	mflo	a0
9d00379c:	00003010 	mfhi	a2
9d0037a0:	00063400 	sll	a2,a2,0x10
9d0037a4:	00ca5025 	or	t2,a2,t2
9d0037a8:	70e42802 	mul	a1,a3,a0
9d0037ac:	0145382b 	sltu	a3,t2,a1
9d0037b0:	10e0ffd1 	beqz	a3,9d0036f8 <__udivdi3+0xe0>
9d0037b4:	00803025 	move	a2,a0
9d0037b8:	010a5021 	addu	t2,t0,t2
9d0037bc:	0148402b 	sltu	t0,t2,t0
9d0037c0:	1500ffcd 	bnez	t0,9d0036f8 <__udivdi3+0xe0>
9d0037c4:	2486ffff 	addiu	a2,a0,-1
9d0037c8:	0145502b 	sltu	t2,t2,a1
9d0037cc:	5540ffca 	bnezl	t2,9d0036f8 <__udivdi3+0xe0>
9d0037d0:	2486fffe 	addiu	a2,a0,-2
9d0037d4:	1000ffc9 	b	9d0036fc <__udivdi3+0xe4>
9d0037d8:	00021400 	sll	v0,v0,0x10
9d0037dc:	01224823 	subu	t1,t1,v0
9d0037e0:	00484004 	sllv	t0,t0,v0
9d0037e4:	00451804 	sllv	v1,a1,v0
9d0037e8:	00445004 	sllv	t2,a0,v0
9d0037ec:	01252806 	srlv	a1,a1,t1
9d0037f0:	00081402 	srl	v0,t0,0x10
9d0037f4:	00a2001b 	divu	zero,a1,v0
9d0037f8:	004001f4 	teq	v0,zero,0x7
9d0037fc:	3106ffff 	andi	a2,t0,0xffff
9d003800:	01243806 	srlv	a3,a0,t1
9d003804:	00e33825 	or	a3,a3,v1
9d003808:	00071c02 	srl	v1,a3,0x10
9d00380c:	00002812 	mflo	a1
9d003810:	00002010 	mfhi	a0
9d003814:	00042400 	sll	a0,a0,0x10
9d003818:	00832025 	or	a0,a0,v1
9d00381c:	70c54802 	mul	t1,a2,a1
9d003820:	0089582b 	sltu	t3,a0,t1
9d003824:	1160000a 	beqz	t3,9d003850 <__udivdi3+0x238>
9d003828:	00a01825 	move	v1,a1
9d00382c:	00882021 	addu	a0,a0,t0
9d003830:	0088582b 	sltu	t3,a0,t0
9d003834:	15600006 	bnez	t3,9d003850 <__udivdi3+0x238>
9d003838:	24a3ffff 	addiu	v1,a1,-1
9d00383c:	0089582b 	sltu	t3,a0,t1
9d003840:	51600004 	beqzl	t3,9d003854 <__udivdi3+0x23c>
9d003844:	00892023 	subu	a0,a0,t1
9d003848:	24a3fffe 	addiu	v1,a1,-2
9d00384c:	00882021 	addu	a0,a0,t0
9d003850:	00892023 	subu	a0,a0,t1
9d003854:	0082001b 	divu	zero,a0,v0
9d003858:	004001f4 	teq	v0,zero,0x7
9d00385c:	30e5ffff 	andi	a1,a3,0xffff
9d003860:	00001012 	mflo	v0
9d003864:	00002010 	mfhi	a0
9d003868:	00042400 	sll	a0,a0,0x10
9d00386c:	00852825 	or	a1,a0,a1
9d003870:	70c23002 	mul	a2,a2,v0
9d003874:	00a6382b 	sltu	a3,a1,a2
9d003878:	10e0000a 	beqz	a3,9d0038a4 <__udivdi3+0x28c>
9d00387c:	00402025 	move	a0,v0
9d003880:	00a82821 	addu	a1,a1,t0
9d003884:	00a8382b 	sltu	a3,a1,t0
9d003888:	14e00006 	bnez	a3,9d0038a4 <__udivdi3+0x28c>
9d00388c:	2444ffff 	addiu	a0,v0,-1
9d003890:	00a6382b 	sltu	a3,a1,a2
9d003894:	50e00004 	beqzl	a3,9d0038a8 <__udivdi3+0x290>
9d003898:	00031c00 	sll	v1,v1,0x10
9d00389c:	2444fffe 	addiu	a0,v0,-2
9d0038a0:	00a82821 	addu	a1,a1,t0
9d0038a4:	00031c00 	sll	v1,v1,0x10
9d0038a8:	00a62823 	subu	a1,a1,a2
9d0038ac:	1000ffa0 	b	9d003730 <__udivdi3+0x118>
9d0038b0:	00641825 	or	v1,v1,a0
9d0038b4:	00a7102b 	sltu	v0,a1,a3
9d0038b8:	1440004f 	bnez	v0,9d0039f8 <__udivdi3+0x3e0>
9d0038bc:	00001825 	move	v1,zero
9d0038c0:	70ea5020 	clz	t2,a3
9d0038c4:	15400008 	bnez	t2,9d0038e8 <__udivdi3+0x2d0>
9d0038c8:	24090020 	li	t1,32
9d0038cc:	00e5282b 	sltu	a1,a3,a1
9d0038d0:	54a0004a 	bnezl	a1,9d0039fc <__udivdi3+0x3e4>
9d0038d4:	24020001 	li	v0,1
9d0038d8:	0086102b 	sltu	v0,a0,a2
9d0038dc:	38420001 	xori	v0,v0,0x1
9d0038e0:	03e00008 	jr	ra
9d0038e4:	00001825 	move	v1,zero
9d0038e8:	012a4823 	subu	t1,t1,t2
9d0038ec:	01261006 	srlv	v0,a2,t1
9d0038f0:	01473804 	sllv	a3,a3,t2
9d0038f4:	00473825 	or	a3,v0,a3
9d0038f8:	00074402 	srl	t0,a3,0x10
9d0038fc:	01451004 	sllv	v0,a1,t2
9d003900:	01252806 	srlv	a1,a1,t1
9d003904:	00a8001b 	divu	zero,a1,t0
9d003908:	010001f4 	teq	t0,zero,0x7
9d00390c:	01246006 	srlv	t4,a0,t1
9d003910:	30ebffff 	andi	t3,a3,0xffff
9d003914:	01826025 	or	t4,t4,v0
9d003918:	000c1c02 	srl	v1,t4,0x10
9d00391c:	01463004 	sllv	a2,a2,t2
9d003920:	00002812 	mflo	a1
9d003924:	00004810 	mfhi	t1
9d003928:	00094c00 	sll	t1,t1,0x10
9d00392c:	01234825 	or	t1,t1,v1
9d003930:	71651002 	mul	v0,t3,a1
9d003934:	0122682b 	sltu	t5,t1,v0
9d003938:	11a0000a 	beqz	t5,9d003964 <__udivdi3+0x34c>
9d00393c:	00a01825 	move	v1,a1
9d003940:	01274821 	addu	t1,t1,a3
9d003944:	0127682b 	sltu	t5,t1,a3
9d003948:	15a00006 	bnez	t5,9d003964 <__udivdi3+0x34c>
9d00394c:	24a3ffff 	addiu	v1,a1,-1
9d003950:	0122682b 	sltu	t5,t1,v0
9d003954:	51a00004 	beqzl	t5,9d003968 <__udivdi3+0x350>
9d003958:	01224823 	subu	t1,t1,v0
9d00395c:	24a3fffe 	addiu	v1,a1,-2
9d003960:	01274821 	addu	t1,t1,a3
9d003964:	01224823 	subu	t1,t1,v0
9d003968:	0128001b 	divu	zero,t1,t0
9d00396c:	010001f4 	teq	t0,zero,0x7
9d003970:	3185ffff 	andi	a1,t4,0xffff
9d003974:	00004012 	mflo	t0
9d003978:	00004810 	mfhi	t1
9d00397c:	00094c00 	sll	t1,t1,0x10
9d003980:	01252825 	or	a1,t1,a1
9d003984:	71685802 	mul	t3,t3,t0
9d003988:	00ab102b 	sltu	v0,a1,t3
9d00398c:	1040000a 	beqz	v0,9d0039b8 <__udivdi3+0x3a0>
9d003990:	01004825 	move	t1,t0
9d003994:	00a72821 	addu	a1,a1,a3
9d003998:	00a7102b 	sltu	v0,a1,a3
9d00399c:	14400006 	bnez	v0,9d0039b8 <__udivdi3+0x3a0>
9d0039a0:	2509ffff 	addiu	t1,t0,-1
9d0039a4:	00ab102b 	sltu	v0,a1,t3
9d0039a8:	10400004 	beqz	v0,9d0039bc <__udivdi3+0x3a4>
9d0039ac:	00031400 	sll	v0,v1,0x10
9d0039b0:	2509fffe 	addiu	t1,t0,-2
9d0039b4:	00a72821 	addu	a1,a1,a3
9d0039b8:	00031400 	sll	v0,v1,0x10
9d0039bc:	00491025 	or	v0,v0,t1
9d0039c0:	00460019 	multu	v0,a2
9d0039c4:	00ab2823 	subu	a1,a1,t3
9d0039c8:	00003810 	mfhi	a3
9d0039cc:	00a7182b 	sltu	v1,a1,a3
9d0039d0:	14600007 	bnez	v1,9d0039f0 <__udivdi3+0x3d8>
9d0039d4:	00003012 	mflo	a2
9d0039d8:	14a70008 	bne	a1,a3,9d0039fc <__udivdi3+0x3e4>
9d0039dc:	00001825 	move	v1,zero
9d0039e0:	01442004 	sllv	a0,a0,t2
9d0039e4:	0086202b 	sltu	a0,a0,a2
9d0039e8:	10800004 	beqz	a0,9d0039fc <__udivdi3+0x3e4>
9d0039ec:	00000000 	nop
9d0039f0:	1000ffbb 	b	9d0038e0 <__udivdi3+0x2c8>
9d0039f4:	2442ffff 	addiu	v0,v0,-1
9d0039f8:	00001025 	move	v0,zero
9d0039fc:	03e00008 	jr	ra
9d003a00:	00000000 	nop

Disassembly of section .text.__scan_i:

9d003a04 <__scan_i>:
9d003a04:	8cc20008 	lw	v0,8(a2)
9d003a08:	27bdffb0 	addiu	sp,sp,-80
9d003a0c:	afb20030 	sw	s2,48(sp)
9d003a10:	00e09025 	move	s2,a3
9d003a14:	afb60040 	sw	s6,64(sp)
9d003a18:	afb1002c 	sw	s1,44(sp)
9d003a1c:	afb00028 	sw	s0,40(sp)
9d003a20:	afbf004c 	sw	ra,76(sp)
9d003a24:	afbe0048 	sw	s8,72(sp)
9d003a28:	afb70044 	sw	s7,68(sp)
9d003a2c:	afb5003c 	sw	s5,60(sp)
9d003a30:	afb40038 	sw	s4,56(sp)
9d003a34:	afb30034 	sw	s3,52(sp)
9d003a38:	0080b025 	move	s6,a0
9d003a3c:	afa50054 	sw	a1,84(sp)
9d003a40:	afa20018 	sw	v0,24(sp)
9d003a44:	8cd10010 	lw	s1,16(a2)
9d003a48:	0f401840 	jal	9d006100 <__skipws>
9d003a4c:	8cd0000c 	lw	s0,12(a2)
9d003a50:	8e430000 	lw	v1,0(s2)
9d003a54:	00621021 	addu	v0,v1,v0
9d003a58:	ae420000 	sw	v0,0(s2)
9d003a5c:	8fa20018 	lw	v0,24(sp)
9d003a60:	14400003 	bnez	v0,9d003a70 <__scan_i+0x6c>
9d003a64:	2622ffff 	addiu	v0,s1,-1
9d003a68:	afa20018 	sw	v0,24(sp)
9d003a6c:	2622ffff 	addiu	v0,s1,-1
9d003a70:	241e000a 	li	s8,10
9d003a74:	0000a825 	move	s5,zero
9d003a78:	0000a025 	move	s4,zero
9d003a7c:	afa20020 	sw	v0,32(sp)
9d003a80:	24130008 	li	s3,8
9d003a84:	2411000a 	li	s1,10
9d003a88:	8fa20018 	lw	v0,24(sp)
9d003a8c:	0282102a 	slt	v0,s4,v0
9d003a90:	10400043 	beqz	v0,9d003ba0 <__scan_i+0x19c>
9d003a94:	8fa20020 	lw	v0,32(sp)
9d003a98:	0282102a 	slt	v0,s4,v0
9d003a9c:	10400041 	beqz	v0,9d003ba4 <__scan_i+0x1a0>
9d003aa0:	02141021 	addu	v0,s0,s4
9d003aa4:	8ec2003c 	lw	v0,60(s6)
9d003aa8:	8ec3004c 	lw	v1,76(s6)
9d003aac:	0043182b 	sltu	v1,v0,v1
9d003ab0:	1060000f 	beqz	v1,9d003af0 <__scan_i+0xec>
9d003ab4:	24430001 	addiu	v1,v0,1
9d003ab8:	aec3003c 	sw	v1,60(s6)
9d003abc:	90570000 	lbu	s7,0(v0)
9d003ac0:	26e2ffd5 	addiu	v0,s7,-43
9d003ac4:	7c020844 	ins	v0,zero,0x1,0x1
9d003ac8:	00541025 	or	v0,v0,s4
9d003acc:	1440001d 	bnez	v0,9d003b44 <__scan_i+0x140>
9d003ad0:	02141021 	addu	v0,s0,s4
9d003ad4:	a2170000 	sb	s7,0(s0)
9d003ad8:	8e420000 	lw	v0,0(s2)
9d003adc:	24150001 	li	s5,1
9d003ae0:	24140001 	li	s4,1
9d003ae4:	24420001 	addiu	v0,v0,1
9d003ae8:	1000ffe7 	b	9d003a88 <__scan_i+0x84>
9d003aec:	ae420000 	sw	v0,0(s2)
9d003af0:	0f4014fb 	jal	9d0053ec <__shgetc>
9d003af4:	02c02025 	move	a0,s6
9d003af8:	0040b825 	move	s7,v0
9d003afc:	2402ffff 	li	v0,-1
9d003b00:	16e2fff0 	bne	s7,v0,9d003ac4 <__scan_i+0xc0>
9d003b04:	26e2ffd5 	addiu	v0,s7,-43
9d003b08:	16800026 	bnez	s4,9d003ba4 <__scan_i+0x1a0>
9d003b0c:	02141021 	addu	v0,s0,s4
9d003b10:	8fbf004c 	lw	ra,76(sp)
9d003b14:	02e01025 	move	v0,s7
9d003b18:	8fbe0048 	lw	s8,72(sp)
9d003b1c:	8fb70044 	lw	s7,68(sp)
9d003b20:	8fb60040 	lw	s6,64(sp)
9d003b24:	8fb5003c 	lw	s5,60(sp)
9d003b28:	8fb40038 	lw	s4,56(sp)
9d003b2c:	8fb30034 	lw	s3,52(sp)
9d003b30:	8fb20030 	lw	s2,48(sp)
9d003b34:	8fb1002c 	lw	s1,44(sp)
9d003b38:	8fb00028 	lw	s0,40(sp)
9d003b3c:	03e00008 	jr	ra
9d003b40:	27bd0050 	addiu	sp,sp,80
9d003b44:	16950006 	bne	s4,s5,9d003b60 <__scan_i+0x15c>
9d003b48:	afa2001c 	sw	v0,28(sp)
9d003b4c:	17d10027 	bne	s8,s1,9d003bec <__scan_i+0x1e8>
9d003b50:	26950001 	addiu	s5,s4,1
9d003b54:	3ae20030 	xori	v0,s7,0x30
9d003b58:	0262f00a 	movz	s8,s3,v0
9d003b5c:	0002a80b 	movn	s5,zero,v0
9d003b60:	26e2ffd0 	addiu	v0,s7,-48
9d003b64:	2c42000a 	sltiu	v0,v0,10
9d003b68:	14400044 	bnez	v0,9d003c7c <__scan_i+0x278>
9d003b6c:	24020010 	li	v0,16
9d003b70:	57c20006 	bnel	s8,v0,9d003b8c <__scan_i+0x188>
9d003b74:	8ec2004c 	lw	v0,76(s6)
9d003b78:	0f401e85 	jal	9d007a14 <isxdigit>
9d003b7c:	02e02025 	move	a0,s7
9d003b80:	14400042 	bnez	v0,9d003c8c <__scan_i+0x288>
9d003b84:	8fa2001c 	lw	v0,28(sp)
9d003b88:	8ec2004c 	lw	v0,76(s6)
9d003b8c:	10400005 	beqz	v0,9d003ba4 <__scan_i+0x1a0>
9d003b90:	02141021 	addu	v0,s0,s4
9d003b94:	8ec2003c 	lw	v0,60(s6)
9d003b98:	2442ffff 	addiu	v0,v0,-1
9d003b9c:	aec2003c 	sw	v0,60(s6)
9d003ba0:	02141021 	addu	v0,s0,s4
9d003ba4:	a0400000 	sb	zero,0(v0)
9d003ba8:	2402000a 	li	v0,10
9d003bac:	17c2003d 	bne	s8,v0,9d003ca4 <__scan_i+0x2a0>
9d003bb0:	03c03025 	move	a2,s8
9d003bb4:	2406000a 	li	a2,10
9d003bb8:	27a50010 	addiu	a1,sp,16
9d003bbc:	0f401e12 	jal	9d007848 <strtoll>
9d003bc0:	02002025 	move	a0,s0
9d003bc4:	8fa40054 	lw	a0,84(sp)
9d003bc8:	ac830004 	sw	v1,4(a0)
9d003bcc:	8fa30010 	lw	v1,16(sp)
9d003bd0:	ac820000 	sw	v0,0(a0)
9d003bd4:	2402fffe 	li	v0,-2
9d003bd8:	00708026 	xor	s0,v1,s0
9d003bdc:	24030001 	li	v1,1
9d003be0:	0050180a 	movz	v1,v0,s0
9d003be4:	1000ffca 	b	9d003b10 <__scan_i+0x10c>
9d003be8:	0060b825 	move	s7,v1
9d003bec:	57d3ffdc 	bnel	s8,s3,9d003b60 <__scan_i+0x15c>
9d003bf0:	0000a825 	move	s5,zero
9d003bf4:	36e20020 	ori	v0,s7,0x20
9d003bf8:	24040078 	li	a0,120
9d003bfc:	5444ffd8 	bnel	v0,a0,9d003b60 <__scan_i+0x15c>
9d003c00:	0000a825 	move	s5,zero
9d003c04:	8ec2003c 	lw	v0,60(s6)
9d003c08:	8ec4004c 	lw	a0,76(s6)
9d003c0c:	0044202b 	sltu	a0,v0,a0
9d003c10:	10800016 	beqz	a0,9d003c6c <__scan_i+0x268>
9d003c14:	00000000 	nop
9d003c18:	24440001 	addiu	a0,v0,1
9d003c1c:	aec4003c 	sw	a0,60(s6)
9d003c20:	90420000 	lbu	v0,0(v0)
9d003c24:	8ec4004c 	lw	a0,76(s6)
9d003c28:	10800004 	beqz	a0,9d003c3c <__scan_i+0x238>
9d003c2c:	00000000 	nop
9d003c30:	8eca003c 	lw	t2,60(s6)
9d003c34:	254affff 	addiu	t2,t2,-1
9d003c38:	aeca003c 	sw	t2,60(s6)
9d003c3c:	0f401e85 	jal	9d007a14 <isxdigit>
9d003c40:	00402025 	move	a0,v0
9d003c44:	5040ffd1 	beqzl	v0,9d003b8c <__scan_i+0x188>
9d003c48:	8ec2004c 	lw	v0,76(s6)
9d003c4c:	8fa2001c 	lw	v0,28(sp)
9d003c50:	02a0a025 	move	s4,s5
9d003c54:	241e0010 	li	s8,16
9d003c58:	a0570000 	sb	s7,0(v0)
9d003c5c:	8e420000 	lw	v0,0(s2)
9d003c60:	24420001 	addiu	v0,v0,1
9d003c64:	1000ff88 	b	9d003a88 <__scan_i+0x84>
9d003c68:	ae420000 	sw	v0,0(s2)
9d003c6c:	0f4014fb 	jal	9d0053ec <__shgetc>
9d003c70:	02c02025 	move	a0,s6
9d003c74:	1000ffec 	b	9d003c28 <__scan_i+0x224>
9d003c78:	8ec4004c 	lw	a0,76(s6)
9d003c7c:	17d30002 	bne	s8,s3,9d003c88 <__scan_i+0x284>
9d003c80:	2ae20038 	slti	v0,s7,56
9d003c84:	0222f00a 	movz	s8,s1,v0
9d003c88:	8fa2001c 	lw	v0,28(sp)
9d003c8c:	26940001 	addiu	s4,s4,1
9d003c90:	a0570000 	sb	s7,0(v0)
9d003c94:	8e420000 	lw	v0,0(s2)
9d003c98:	24420001 	addiu	v0,v0,1
9d003c9c:	1000ff7a 	b	9d003a88 <__scan_i+0x84>
9d003ca0:	ae420000 	sw	v0,0(s2)
9d003ca4:	27a50010 	addiu	a1,sp,16
9d003ca8:	0f401e07 	jal	9d00781c <strtoull>
9d003cac:	02002025 	move	a0,s0
9d003cb0:	1000ffc5 	b	9d003bc8 <__scan_i+0x1c4>
9d003cb4:	8fa40054 	lw	a0,84(sp)

Disassembly of section .text.malloc:

9d003cb8 <malloc>:
9d003cb8:	27bdffd8 	addiu	sp,sp,-40
9d003cbc:	afa40028 	sw	a0,40(sp)
9d003cc0:	27a40028 	addiu	a0,sp,40
9d003cc4:	afbf0024 	sw	ra,36(sp)
9d003cc8:	afb10020 	sw	s1,32(sp)
9d003ccc:	0f401c2b 	jal	9d0070ac <adjust_size>
9d003cd0:	afb0001c 	sw	s0,28(sp)
9d003cd4:	04410007 	bgez	v0,9d003cf4 <malloc+0x3c>
9d003cd8:	8fa20028 	lw	v0,40(sp)
9d003cdc:	00001025 	move	v0,zero
9d003ce0:	8fbf0024 	lw	ra,36(sp)
9d003ce4:	8fb10020 	lw	s1,32(sp)
9d003ce8:	8fb0001c 	lw	s0,28(sp)
9d003cec:	03e00008 	jr	ra
9d003cf0:	27bd0028 	addiu	sp,sp,40
9d003cf4:	00021102 	srl	v0,v0,0x4
9d003cf8:	2451ffff 	addiu	s1,v0,-1
9d003cfc:	2e230021 	sltiu	v1,s1,33
9d003d00:	14600009 	bnez	v1,9d003d28 <malloc+0x70>
9d003d04:	2442fffe 	addiu	v0,v0,-2
9d003d08:	3c039d00 	lui	v1,0x9d00
9d003d0c:	2c440200 	sltiu	a0,v0,512
9d003d10:	10800023 	beqz	a0,9d003da0 <malloc+0xe8>
9d003d14:	24637018 	addiu	v1,v1,28696
9d003d18:	000210c2 	srl	v0,v0,0x3
9d003d1c:	00621021 	addu	v0,v1,v0
9d003d20:	9051fffc 	lbu	s1,-4(v0)
9d003d24:	26310001 	addiu	s1,s1,1
9d003d28:	02203025 	move	a2,s1
9d003d2c:	24040001 	li	a0,1
9d003d30:	0f401db7 	jal	9d0076dc <__ashldi3>
9d003d34:	00002825 	move	a1,zero
9d003d38:	00025823 	negu	t3,v0
9d003d3c:	000b382b 	sltu	a3,zero,t3
9d003d40:	00031823 	negu	v1,v1
9d003d44:	3c0aa000 	lui	t2,0xa000
9d003d48:	3c089d00 	lui	t0,0x9d00
9d003d4c:	00673823 	subu	a3,v1,a3
9d003d50:	25086ff8 	addiu	t0,t0,28664
9d003d54:	3c0c076b 	lui	t4,0x76b
9d003d58:	25490010 	addiu	t1,t2,16
9d003d5c:	8d420010 	lw	v0,16(t2)
9d003d60:	8d430014 	lw	v1,20(t2)
9d003d64:	01622824 	and	a1,t3,v0
9d003d68:	00e31824 	and	v1,a3,v1
9d003d6c:	00a32025 	or	a0,a1,v1
9d003d70:	14800039 	bnez	a0,9d003e58 <malloc+0x1a0>
9d003d74:	8fa20028 	lw	v0,40(sp)
9d003d78:	27a40010 	addiu	a0,sp,16
9d003d7c:	24420010 	addiu	v0,v0,16
9d003d80:	0f401d8a 	jal	9d007628 <__expand_heap>
9d003d84:	afa20010 	sw	v0,16(sp)
9d003d88:	1440000a 	bnez	v0,9d003db4 <malloc+0xfc>
9d003d8c:	3c03a000 	lui	v1,0xa000
9d003d90:	3c03a000 	lui	v1,0xa000
9d003d94:	2404000c 	li	a0,12
9d003d98:	1000ffd1 	b	9d003ce0 <malloc+0x28>
9d003d9c:	ac64035c 	sw	a0,860(v1)
9d003da0:	000211c2 	srl	v0,v0,0x7
9d003da4:	00621021 	addu	v0,v1,v0
9d003da8:	9051fffc 	lbu	s1,-4(v0)
9d003dac:	1000ffde 	b	9d003d28 <malloc+0x70>
9d003db0:	26310011 	addiu	s1,s1,17
9d003db4:	8c710008 	lw	s1,8(v1)
9d003db8:	10510006 	beq	v0,s1,9d003dd4 <malloc+0x11c>
9d003dbc:	8fa40010 	lw	a0,16(sp)
9d003dc0:	24510010 	addiu	s1,v0,16
9d003dc4:	2484fff0 	addiu	a0,a0,-16
9d003dc8:	afa40010 	sw	a0,16(sp)
9d003dcc:	24040001 	li	a0,1
9d003dd0:	ac440008 	sw	a0,8(v0)
9d003dd4:	8fa20010 	lw	v0,16(sp)
9d003dd8:	2630fff8 	addiu	s0,s1,-8
9d003ddc:	02222021 	addu	a0,s1,v0
9d003de0:	ac640008 	sw	a0,8(v1)
9d003de4:	34420001 	ori	v0,v0,0x1
9d003de8:	24030001 	li	v1,1
9d003dec:	ac82fff8 	sw	v0,-8(a0)
9d003df0:	ac83fffc 	sw	v1,-4(a0)
9d003df4:	1200ffb9 	beqz	s0,9d003cdc <malloc+0x24>
9d003df8:	ae22fffc 	sw	v0,-4(s1)
9d003dfc:	0f401afb 	jal	9d006bec <alloc_rev>
9d003e00:	02002025 	move	a0,s0
9d003e04:	10400010 	beqz	v0,9d003e48 <malloc+0x190>
9d003e08:	8fa50028 	lw	a1,40(sp)
9d003e0c:	8e23fff8 	lw	v1,-8(s1)
9d003e10:	2402fffe 	li	v0,-2
9d003e14:	8e25fffc 	lw	a1,-4(s1)
9d003e18:	00431824 	and	v1,v0,v1
9d003e1c:	02031823 	subu	v1,s0,v1
9d003e20:	8c640004 	lw	a0,4(v1)
9d003e24:	00442024 	and	a0,v0,a0
9d003e28:	00852021 	addu	a0,a0,a1
9d003e2c:	ac640004 	sw	a0,4(v1)
9d003e30:	8e25fffc 	lw	a1,-4(s1)
9d003e34:	00451024 	and	v0,v0,a1
9d003e38:	02028021 	addu	s0,s0,v0
9d003e3c:	ae040000 	sw	a0,0(s0)
9d003e40:	00608025 	move	s0,v1
9d003e44:	8fa50028 	lw	a1,40(sp)
9d003e48:	0f401c41 	jal	9d007104 <trim>
9d003e4c:	02002025 	move	a0,s0
9d003e50:	1000ffa3 	b	9d003ce0 <malloc+0x28>
9d003e54:	26020008 	addiu	v0,s0,8
9d003e58:	54a00032 	bnezl	a1,9d003f24 <malloc+0x26c>
9d003e5c:	00052023 	negu	a0,a1
9d003e60:	00032023 	negu	a0,v1
9d003e64:	00832024 	and	a0,a0,v1
9d003e68:	3582e629 	ori	v0,t4,0xe629
9d003e6c:	70822002 	mul	a0,a0,v0
9d003e70:	000426c2 	srl	a0,a0,0x1b
9d003e74:	01042021 	addu	a0,t0,a0
9d003e78:	80860000 	lb	a2,0(a0)
9d003e7c:	24c60020 	addiu	a2,a2,32
9d003e80:	0f401dd4 	jal	9d007750 <lock_bin>
9d003e84:	00c02025 	move	a0,a2
9d003e88:	24c40001 	addiu	a0,a2,1
9d003e8c:	000420c0 	sll	a0,a0,0x3
9d003e90:	00891021 	addu	v0,a0,t1
9d003e94:	8c500000 	lw	s0,0(v0)
9d003e98:	2484fff8 	addiu	a0,a0,-8
9d003e9c:	01242021 	addu	a0,t1,a0
9d003ea0:	1204ffae 	beq	s0,a0,9d003d5c <malloc+0xa4>
9d003ea4:	28c20028 	slti	v0,a2,40
9d003ea8:	14400025 	bnez	v0,9d003f40 <malloc+0x288>
9d003eac:	26310002 	addiu	s1,s1,2
9d003eb0:	0226882a 	slt	s1,s1,a2
9d003eb4:	56200005 	bnezl	s1,9d003ecc <malloc+0x214>
9d003eb8:	8e070004 	lw	a3,4(s0)
9d003ebc:	2402003f 	li	v0,63
9d003ec0:	14c20020 	bne	a2,v0,9d003f44 <malloc+0x28c>
9d003ec4:	00c02825 	move	a1,a2
9d003ec8:	8e070004 	lw	a3,4(s0)
9d003ecc:	8fa50028 	lw	a1,40(sp)
9d003ed0:	7c070004 	ins	a3,zero,0x0,0x1
9d003ed4:	00e54023 	subu	t0,a3,a1
9d003ed8:	0f401b87 	jal	9d006e1c <bin_index>
9d003edc:	01002025 	move	a0,t0
9d003ee0:	54c20018 	bnel	a2,v0,9d003f44 <malloc+0x28c>
9d003ee4:	00c02825 	move	a1,a2
9d003ee8:	8e03000c 	lw	v1,12(s0)
9d003eec:	8e040008 	lw	a0,8(s0)
9d003ef0:	02051021 	addu	v0,s0,a1
9d003ef4:	ac43000c 	sw	v1,12(v0)
9d003ef8:	ac440008 	sw	a0,8(v0)
9d003efc:	ac620008 	sw	v0,8(v1)
9d003f00:	8c430008 	lw	v1,8(v0)
9d003f04:	34a50001 	ori	a1,a1,0x1
9d003f08:	02073821 	addu	a3,s0,a3
9d003f0c:	ac62000c 	sw	v0,12(v1)
9d003f10:	ac450000 	sw	a1,0(v0)
9d003f14:	ac480004 	sw	t0,4(v0)
9d003f18:	ace80000 	sw	t0,0(a3)
9d003f1c:	1000ffc9 	b	9d003e44 <malloc+0x18c>
9d003f20:	ae050004 	sw	a1,4(s0)
9d003f24:	00852024 	and	a0,a0,a1
9d003f28:	3582e629 	ori	v0,t4,0xe629
9d003f2c:	70822002 	mul	a0,a0,v0
9d003f30:	000426c2 	srl	a0,a0,0x1b
9d003f34:	01042021 	addu	a0,t0,a0
9d003f38:	1000ffd1 	b	9d003e80 <malloc+0x1c8>
9d003f3c:	80860000 	lb	a2,0(a0)
9d003f40:	00c02825 	move	a1,a2
9d003f44:	0f401898 	jal	9d006260 <unbin>
9d003f48:	02002025 	move	a0,s0
9d003f4c:	1000ffbe 	b	9d003e48 <malloc+0x190>
9d003f50:	8fa50028 	lw	a1,40(sp)

Disassembly of section .text.__fmt_x:

9d003f54 <__fmt_x>:
9d003f54:	27bdffa8 	addiu	sp,sp,-88
9d003f58:	afb10034 	sw	s1,52(sp)
9d003f5c:	8cb10004 	lw	s1,4(a1)
9d003f60:	afbe0050 	sw	s8,80(sp)
9d003f64:	afb7004c 	sw	s7,76(sp)
9d003f68:	afb50044 	sw	s5,68(sp)
9d003f6c:	afb3003c 	sw	s3,60(sp)
9d003f70:	00e04825 	move	t1,a3
9d003f74:	afbf0054 	sw	ra,84(sp)
9d003f78:	afb60048 	sw	s6,72(sp)
9d003f7c:	afb40040 	sw	s4,64(sp)
9d003f80:	afb20038 	sw	s2,56(sp)
9d003f84:	afb00030 	sw	s0,48(sp)
9d003f88:	00809825 	move	s3,a0
9d003f8c:	00a0a825 	move	s5,a1
9d003f90:	8ca70008 	lw	a3,8(a1)
9d003f94:	8cbe0000 	lw	s8,0(a1)
9d003f98:	0620004c 	bltz	s1,9d0040cc <__fmt_x+0x178>
9d003f9c:	8cb7000c 	lw	s7,12(a1)
9d003fa0:	7c1e0844 	ins	s8,zero,0x1,0x1
9d003fa4:	33ca0010 	andi	t2,s8,0x10
9d003fa8:	8cd60000 	lw	s6,0(a2)
9d003fac:	8cc80004 	lw	t0,4(a2)
9d003fb0:	11400004 	beqz	t2,9d003fc4 <__fmt_x+0x70>
9d003fb4:	00e01025 	move	v0,a3
9d003fb8:	02c81825 	or	v1,s6,t0
9d003fbc:	54600001 	bnezl	v1,9d003fc4 <__fmt_x+0x70>
9d003fc0:	24e2fffe 	addiu	v0,a3,-2
9d003fc4:	33cb0008 	andi	t3,s8,0x8
9d003fc8:	55600001 	bnezl	t3,9d003fd0 <__fmt_x+0x7c>
9d003fcc:	2442ffff 	addiu	v0,v0,-1
9d003fd0:	8eb00010 	lw	s0,16(s5)
9d003fd4:	2534ffbf 	addiu	s4,t1,-65
9d003fd8:	00519023 	subu	s2,v0,s1
9d003fdc:	2610ffff 	addiu	s0,s0,-1
9d003fe0:	02f01821 	addu	v1,s7,s0
9d003fe4:	a0600000 	sb	zero,0(v1)
9d003fe8:	33c50002 	andi	a1,s8,0x2
9d003fec:	2e94001a 	sltiu	s4,s4,26
9d003ff0:	2a020002 	slti	v0,s0,2
9d003ff4:	1440000a 	bnez	v0,9d004020 <__fmt_x+0xcc>
9d003ff8:	02c81025 	or	v0,s6,t0
9d003ffc:	14400035 	bnez	v0,9d0040d4 <__fmt_x+0x180>
9d004000:	32c3000f 	andi	v1,s6,0xf
9d004004:	1e200034 	bgtz	s1,9d0040d8 <__fmt_x+0x184>
9d004008:	2864000a 	slti	a0,v1,10
9d00400c:	02511021 	addu	v0,s2,s1
9d004010:	18400003 	blez	v0,9d004020 <__fmt_x+0xcc>
9d004014:	00000000 	nop
9d004018:	54a00030 	bnezl	a1,9d0040dc <__fmt_x+0x188>
9d00401c:	2610ffff 	addiu	s0,s0,-1
9d004020:	1140000b 	beqz	t2,9d004050 <__fmt_x+0xfc>
9d004024:	00000000 	nop
9d004028:	8cc20000 	lw	v0,0(a2)
9d00402c:	8cc30004 	lw	v1,4(a2)
9d004030:	00431025 	or	v0,v0,v1
9d004034:	10400006 	beqz	v0,9d004050 <__fmt_x+0xfc>
9d004038:	02f01021 	addu	v0,s7,s0
9d00403c:	2610fffe 	addiu	s0,s0,-2
9d004040:	a049ffff 	sb	t1,-1(v0)
9d004044:	24030030 	li	v1,48
9d004048:	02f01021 	addu	v0,s7,s0
9d00404c:	a0430000 	sb	v1,0(v0)
9d004050:	51600006 	beqzl	t3,9d00406c <__fmt_x+0x118>
9d004054:	8ea60010 	lw	a2,16(s5)
9d004058:	2610ffff 	addiu	s0,s0,-1
9d00405c:	02f01021 	addu	v0,s7,s0
9d004060:	24030020 	li	v1,32
9d004064:	a0430000 	sb	v1,0(v0)
9d004068:	8ea60010 	lw	a2,16(s5)
9d00406c:	afbe0010 	sw	s8,16(sp)
9d004070:	02f02821 	addu	a1,s7,s0
9d004074:	24c6ffff 	addiu	a2,a2,-1
9d004078:	00d03023 	subu	a2,a2,s0
9d00407c:	0f401614 	jal	9d005850 <__pad>
9d004080:	02602025 	move	a0,s3
9d004084:	8e630004 	lw	v1,4(s3)
9d004088:	30630100 	andi	v1,v1,0x100
9d00408c:	10600004 	beqz	v1,9d0040a0 <__fmt_x+0x14c>
9d004090:	8fbf0054 	lw	ra,84(sp)
9d004094:	8ea30004 	lw	v1,4(s5)
9d004098:	0043202a 	slt	a0,v0,v1
9d00409c:	0064100b 	movn	v0,v1,a0
9d0040a0:	8fbe0050 	lw	s8,80(sp)
9d0040a4:	8fb7004c 	lw	s7,76(sp)
9d0040a8:	8fb60048 	lw	s6,72(sp)
9d0040ac:	8fb50044 	lw	s5,68(sp)
9d0040b0:	8fb40040 	lw	s4,64(sp)
9d0040b4:	8fb3003c 	lw	s3,60(sp)
9d0040b8:	8fb20038 	lw	s2,56(sp)
9d0040bc:	8fb10034 	lw	s1,52(sp)
9d0040c0:	8fb00030 	lw	s0,48(sp)
9d0040c4:	03e00008 	jr	ra
9d0040c8:	27bd0058 	addiu	sp,sp,88
9d0040cc:	1000ffb5 	b	9d003fa4 <__fmt_x+0x50>
9d0040d0:	24110001 	li	s1,1
9d0040d4:	2864000a 	slti	a0,v1,10
9d0040d8:	2610ffff 	addiu	s0,s0,-1
9d0040dc:	10800002 	beqz	a0,9d0040e8 <__fmt_x+0x194>
9d0040e0:	24620057 	addiu	v0,v1,87
9d0040e4:	24620030 	addiu	v0,v1,48
9d0040e8:	12800017 	beqz	s4,9d004148 <__fmt_x+0x1f4>
9d0040ec:	02f01821 	addu	v1,s7,s0
9d0040f0:	34430020 	ori	v1,v0,0x20
9d0040f4:	2463ff9f 	addiu	v1,v1,-97
9d0040f8:	2c63001a 	sltiu	v1,v1,26
9d0040fc:	10600012 	beqz	v1,9d004148 <__fmt_x+0x1f4>
9d004100:	02f01821 	addu	v1,s7,s0
9d004104:	00402025 	move	a0,v0
9d004108:	afa50028 	sw	a1,40(sp)
9d00410c:	afa80024 	sw	t0,36(sp)
9d004110:	afa90064 	sw	t1,100(sp)
9d004114:	afa60060 	sw	a2,96(sp)
9d004118:	afa70020 	sw	a3,32(sp)
9d00411c:	afab001c 	sw	t3,28(sp)
9d004120:	0f401ec2 	jal	9d007b08 <toupper>
9d004124:	afaa0018 	sw	t2,24(sp)
9d004128:	8fa50028 	lw	a1,40(sp)
9d00412c:	8fa80024 	lw	t0,36(sp)
9d004130:	8fa90064 	lw	t1,100(sp)
9d004134:	8fa60060 	lw	a2,96(sp)
9d004138:	8fa70020 	lw	a3,32(sp)
9d00413c:	8fab001c 	lw	t3,28(sp)
9d004140:	8faa0018 	lw	t2,24(sp)
9d004144:	02f01821 	addu	v1,s7,s0
9d004148:	a0620000 	sb	v0,0(v1)
9d00414c:	0016b102 	srl	s6,s6,0x4
9d004150:	00081700 	sll	v0,t0,0x1c
9d004154:	2631ffff 	addiu	s1,s1,-1
9d004158:	0056b025 	or	s6,v0,s6
9d00415c:	1000ffa4 	b	9d003ff0 <__fmt_x+0x9c>
9d004160:	00084102 	srl	t0,t0,0x4

Disassembly of section .text.__scan_x:

9d004164 <__scan_x>:
9d004164:	27bdffc0 	addiu	sp,sp,-64
9d004168:	afb20020 	sw	s2,32(sp)
9d00416c:	00e09025 	move	s2,a3
9d004170:	afb60030 	sw	s6,48(sp)
9d004174:	afb5002c 	sw	s5,44(sp)
9d004178:	afb30024 	sw	s3,36(sp)
9d00417c:	afb1001c 	sw	s1,28(sp)
9d004180:	0080b025 	move	s6,a0
9d004184:	afbf003c 	sw	ra,60(sp)
9d004188:	afbe0038 	sw	s8,56(sp)
9d00418c:	afb70034 	sw	s7,52(sp)
9d004190:	afb40028 	sw	s4,40(sp)
9d004194:	afb00018 	sw	s0,24(sp)
9d004198:	afa50044 	sw	a1,68(sp)
9d00419c:	8cd30008 	lw	s3,8(a2)
9d0041a0:	8cd50010 	lw	s5,16(a2)
9d0041a4:	0f401840 	jal	9d006100 <__skipws>
9d0041a8:	8cd1000c 	lw	s1,12(a2)
9d0041ac:	8e440000 	lw	a0,0(s2)
9d0041b0:	00821021 	addu	v0,a0,v0
9d0041b4:	16600002 	bnez	s3,9d0041c0 <__scan_x+0x5c>
9d0041b8:	ae420000 	sw	v0,0(s2)
9d0041bc:	26b3ffff 	addiu	s3,s5,-1
9d0041c0:	00008025 	move	s0,zero
9d0041c4:	26b5ffff 	addiu	s5,s5,-1
9d0041c8:	24170078 	li	s7,120
9d0041cc:	241e0030 	li	s8,48
9d0041d0:	0213102a 	slt	v0,s0,s3
9d0041d4:	10400030 	beqz	v0,9d004298 <__scan_x+0x134>
9d0041d8:	0215102a 	slt	v0,s0,s5
9d0041dc:	5040002f 	beqzl	v0,9d00429c <__scan_x+0x138>
9d0041e0:	02308021 	addu	s0,s1,s0
9d0041e4:	8ec2003c 	lw	v0,60(s6)
9d0041e8:	8ec4004c 	lw	a0,76(s6)
9d0041ec:	0044202b 	sltu	a0,v0,a0
9d0041f0:	10800039 	beqz	a0,9d0042d8 <__scan_x+0x174>
9d0041f4:	24440001 	addiu	a0,v0,1
9d0041f8:	aec4003c 	sw	a0,60(s6)
9d0041fc:	90540000 	lbu	s4,0(v0)
9d004200:	0f401e85 	jal	9d007a14 <isxdigit>
9d004204:	02802025 	move	a0,s4
9d004208:	1440004c 	bnez	v0,9d00433c <__scan_x+0x1d8>
9d00420c:	02301021 	addu	v0,s1,s0
9d004210:	24020001 	li	v0,1
9d004214:	5602001b 	bnel	s0,v0,9d004284 <__scan_x+0x120>
9d004218:	8ec2004c 	lw	v0,76(s6)
9d00421c:	0f401eb4 	jal	9d007ad0 <tolower>
9d004220:	02802025 	move	a0,s4
9d004224:	54570017 	bnel	v0,s7,9d004284 <__scan_x+0x120>
9d004228:	8ec2004c 	lw	v0,76(s6)
9d00422c:	82220000 	lb	v0,0(s1)
9d004230:	545e0014 	bnel	v0,s8,9d004284 <__scan_x+0x120>
9d004234:	8ec2004c 	lw	v0,76(s6)
9d004238:	8ec2003c 	lw	v0,60(s6)
9d00423c:	8ec4004c 	lw	a0,76(s6)
9d004240:	0044202b 	sltu	a0,v0,a0
9d004244:	10800039 	beqz	a0,9d00432c <__scan_x+0x1c8>
9d004248:	00000000 	nop
9d00424c:	24440001 	addiu	a0,v0,1
9d004250:	aec4003c 	sw	a0,60(s6)
9d004254:	90420000 	lbu	v0,0(v0)
9d004258:	8ec4004c 	lw	a0,76(s6)
9d00425c:	10800004 	beqz	a0,9d004270 <__scan_x+0x10c>
9d004260:	00000000 	nop
9d004264:	8ec6003c 	lw	a2,60(s6)
9d004268:	24c6ffff 	addiu	a2,a2,-1
9d00426c:	aec6003c 	sw	a2,60(s6)
9d004270:	0f401e85 	jal	9d007a14 <isxdigit>
9d004274:	00402025 	move	a0,v0
9d004278:	14400030 	bnez	v0,9d00433c <__scan_x+0x1d8>
9d00427c:	02301021 	addu	v0,s1,s0
9d004280:	8ec2004c 	lw	v0,76(s6)
9d004284:	50400005 	beqzl	v0,9d00429c <__scan_x+0x138>
9d004288:	02308021 	addu	s0,s1,s0
9d00428c:	8ec2003c 	lw	v0,60(s6)
9d004290:	2442ffff 	addiu	v0,v0,-1
9d004294:	aec2003c 	sw	v0,60(s6)
9d004298:	02308021 	addu	s0,s1,s0
9d00429c:	02202025 	move	a0,s1
9d0042a0:	27a50010 	addiu	a1,sp,16
9d0042a4:	a2000000 	sb	zero,0(s0)
9d0042a8:	0f401e07 	jal	9d00781c <strtoull>
9d0042ac:	24060010 	li	a2,16
9d0042b0:	8fa40044 	lw	a0,68(sp)
9d0042b4:	8fa50010 	lw	a1,16(sp)
9d0042b8:	ac820000 	sw	v0,0(a0)
9d0042bc:	00b18826 	xor	s1,a1,s1
9d0042c0:	2402fffe 	li	v0,-2
9d0042c4:	24050001 	li	a1,1
9d0042c8:	0051280a 	movz	a1,v0,s1
9d0042cc:	ac830004 	sw	v1,4(a0)
9d0042d0:	10000009 	b	9d0042f8 <__scan_x+0x194>
9d0042d4:	00a0a025 	move	s4,a1
9d0042d8:	0f4014fb 	jal	9d0053ec <__shgetc>
9d0042dc:	02c02025 	move	a0,s6
9d0042e0:	0040a025 	move	s4,v0
9d0042e4:	2402ffff 	li	v0,-1
9d0042e8:	1682ffc5 	bne	s4,v0,9d004200 <__scan_x+0x9c>
9d0042ec:	00000000 	nop
9d0042f0:	1600ffea 	bnez	s0,9d00429c <__scan_x+0x138>
9d0042f4:	02308021 	addu	s0,s1,s0
9d0042f8:	8fbf003c 	lw	ra,60(sp)
9d0042fc:	02801025 	move	v0,s4
9d004300:	8fbe0038 	lw	s8,56(sp)
9d004304:	8fb70034 	lw	s7,52(sp)
9d004308:	8fb60030 	lw	s6,48(sp)
9d00430c:	8fb5002c 	lw	s5,44(sp)
9d004310:	8fb40028 	lw	s4,40(sp)
9d004314:	8fb30024 	lw	s3,36(sp)
9d004318:	8fb20020 	lw	s2,32(sp)
9d00431c:	8fb1001c 	lw	s1,28(sp)
9d004320:	8fb00018 	lw	s0,24(sp)
9d004324:	03e00008 	jr	ra
9d004328:	27bd0040 	addiu	sp,sp,64
9d00432c:	0f4014fb 	jal	9d0053ec <__shgetc>
9d004330:	02c02025 	move	a0,s6
9d004334:	1000ffc9 	b	9d00425c <__scan_x+0xf8>
9d004338:	8ec4004c 	lw	a0,76(s6)
9d00433c:	a0540000 	sb	s4,0(v0)
9d004340:	8e420000 	lw	v0,0(s2)
9d004344:	26100001 	addiu	s0,s0,1
9d004348:	24420001 	addiu	v0,v0,1
9d00434c:	1000ffa0 	b	9d0041d0 <__scan_x+0x6c>
9d004350:	ae420000 	sw	v0,0(s2)

Disassembly of section .text:

9d004354 <NU32_Startup>:

// Perform startup routines:
//  Make NU32_LED1 and NU32_LED2 pins outputs (NU32_USER is by default an input)
//  Initialize the serial port - UART3 (no interrupt) 
//  Enable interrupts
void NU32_Startup() {
9d004354:	27bdfff8 	addiu	sp,sp,-8
9d004358:	afbf0004 	sw	ra,4(sp)
  // disable interrupts
  __builtin_disable_interrupts();
9d00435c:	41626000 	di	v0
9d004360:	000000c0 	ehb
  // see Chapter 2 "CPU for Devices with M4K Core" of the PIC32 reference manual
  // most of the other bits have prescribed values
  // microchip does not provide a _CP0_SET_CONFIG macro, so we directly use
  // the compiler built-in command _mtc0
  // to disable cache, use 0xa4210582 
  __builtin_mtc0(_CP0_CONFIG, _CP0_CONFIG_SELECT, 0xa4210583); 
9d004364:	3c02a421 	lui	v0,0xa421
9d004368:	24420583 	addiu	v0,v0,1411
9d00436c:	40828000 	mtc0	v0,c0_config
9d004370:	000000c0 	ehb
  
  // set the prefectch cache wait state to 2, as per the
  // electrical characteristics data sheet
  CHECONbits.PFMWS = 0x2;   
9d004374:	3c02bf88 	lui	v0,0xbf88
9d004378:	8c434000 	lw	v1,16384(v0)
9d00437c:	24050002 	li	a1,2
9d004380:	7ca31004 	ins	v1,a1,0x0,0x3
9d004384:	ac434000 	sw	v1,16384(v0)

  //enable prefetch for cacheable and noncacheable memory
  CHECONbits.PREFEN = 0x3; 
9d004388:	8c434000 	lw	v1,16384(v0)
9d00438c:	24040003 	li	a0,3
9d004390:	7c832904 	ins	v1,a0,0x4,0x2
9d004394:	ac434000 	sw	v1,16384(v0)

  // 0 data RAM access wait states
  BMXCONbits.BMXWSDRM = 0x0;
9d004398:	3c02bf88 	lui	v0,0xbf88
9d00439c:	8c432000 	lw	v1,8192(v0)
9d0043a0:	7c033184 	ins	v1,zero,0x6,0x1
9d0043a4:	ac432000 	sw	v1,8192(v0)
  
  // enable multi vector interrupts
  INTCONbits.MVEC = 0x1;
9d0043a8:	3c02bf88 	lui	v0,0xbf88
9d0043ac:	8c461000 	lw	a2,4096(v0)
9d0043b0:	24030001 	li	v1,1
9d0043b4:	7c666304 	ins	a2,v1,0xc,0x1
9d0043b8:	ac461000 	sw	a2,4096(v0)

  // disable JTAG to get B10, B11, B12 and B13 back
  DDPCONbits.JTAGEN = 0;
9d0043bc:	3c02bf81 	lui	v0,0xbf81
9d0043c0:	9046f200 	lbu	a2,-3584(v0)
9d0043c4:	7c0618c4 	ins	a2,zero,0x3,0x1
9d0043c8:	a046f200 	sb	a2,-3584(v0)

  TRISFCLR = 0x0003;  // Make F0 and F1 outputs (LED1 and LED2)
9d0043cc:	3c02bf88 	lui	v0,0xbf88
9d0043d0:	ac446144 	sw	a0,24900(v0)
  NU32_LED1 = 1;      // LED1 is off
9d0043d4:	3c02bf88 	lui	v0,0xbf88
9d0043d8:	90446160 	lbu	a0,24928(v0)
9d0043dc:	7c640004 	ins	a0,v1,0x0,0x1
9d0043e0:	a0446160 	sb	a0,24928(v0)
  NU32_LED2 = 0;      // LED2 is on
9d0043e4:	90446160 	lbu	a0,24928(v0)
9d0043e8:	7c040844 	ins	a0,zero,0x1,0x1
9d0043ec:	a0446160 	sb	a0,24928(v0)

  // turn on UART3 without an interrupt
  U3MODEbits.BRGH = 0; // set baud to NU32_DESIRED_BAUD
9d0043f0:	3c02bf80 	lui	v0,0xbf80
9d0043f4:	94446400 	lhu	a0,25600(v0)
9d0043f8:	7c0418c4 	ins	a0,zero,0x3,0x1
9d0043fc:	a4446400 	sh	a0,25600(v0)
  U3BRG = ((NU32_SYS_FREQ / NU32_DESIRED_BAUD) / 16) - 1;
9d004400:	3c04bf80 	lui	a0,0xbf80
9d004404:	24060014 	li	a2,20
9d004408:	ac866440 	sw	a2,25664(a0)

  // 8 bit, no parity bit, and 1 stop bit (8N1 setup)
  U3MODEbits.PDSEL = 0;
9d00440c:	94446400 	lhu	a0,25600(v0)
9d004410:	7c041044 	ins	a0,zero,0x1,0x2
9d004414:	a4446400 	sh	a0,25600(v0)
  U3MODEbits.STSEL = 0;
9d004418:	94446400 	lhu	a0,25600(v0)
9d00441c:	7c040004 	ins	a0,zero,0x0,0x1
9d004420:	a4446400 	sh	a0,25600(v0)

  // configure TX & RX pins as output & input pins
  U3STAbits.UTXEN = 1;
9d004424:	3c04bf80 	lui	a0,0xbf80
9d004428:	8c866410 	lw	a2,25616(a0)
9d00442c:	7c665284 	ins	a2,v1,0xa,0x1
9d004430:	ac866410 	sw	a2,25616(a0)
  U3STAbits.URXEN = 1;
9d004434:	8c866410 	lw	a2,25616(a0)
9d004438:	7c666304 	ins	a2,v1,0xc,0x1
9d00443c:	ac866410 	sw	a2,25616(a0)
  // configure hardware flow control using RTS and CTS
  U3MODEbits.UEN = 2;
9d004440:	94446400 	lhu	a0,25600(v0)
9d004444:	7ca44a04 	ins	a0,a1,0x8,0x2
9d004448:	a4446400 	sh	a0,25600(v0)

  // enable the uart
  U3MODEbits.ON = 1;
9d00444c:	94446400 	lhu	a0,25600(v0)
9d004450:	7c647bc4 	ins	a0,v1,0xf,0x1
9d004454:	a4446400 	sh	a0,25600(v0)

  __builtin_enable_interrupts();
9d004458:	41626020 	ei	v0
}
9d00445c:	8fbf0004 	lw	ra,4(sp)
9d004460:	03e00008 	jr	ra
9d004464:	27bd0008 	addiu	sp,sp,8

9d004468 <NU32_ReadUART3>:
// Read from UART3
// block other functions until you get a '\r' or '\n'
// send the pointer to your char array and the number of elements in the array
void NU32_ReadUART3(char * message, int maxLength) {
  char data = 0;
  int complete = 0, num_bytes = 0;
9d004468:	00003025 	move	a2,zero
  // loop until you get a '\r' or '\n'
  while (!complete) {
    if (U3STAbits.URXDA) { // if data is available
9d00446c:	3c03bf80 	lui	v1,0xbf80
      data = U3RXREG;      // read the data
9d004470:	3c09bf80 	lui	t1,0xbf80
      if ((data == '\n') || (data == '\r')) {
9d004474:	2408000a 	li	t0,10
9d004478:	240a000d 	li	t2,13
    if (U3STAbits.URXDA) { // if data is available
9d00447c:	8c626410 	lw	v0,25616(v1)
9d004480:	30420001 	andi	v0,v0,0x1
9d004484:	1040fffd 	beqz	v0,9d00447c <NU32_ReadUART3+0x14>
9d004488:	00000000 	nop
      data = U3RXREG;      // read the data
9d00448c:	8d226430 	lw	v0,25648(t1)
9d004490:	7c021420 	seb	v0,v0
      if ((data == '\n') || (data == '\r')) {
9d004494:	50480009 	beql	v0,t0,9d0044bc <NU32_ReadUART3+0x54>
9d004498:	00862021 	addu	a0,a0,a2
9d00449c:	104a0006 	beq	v0,t2,9d0044b8 <NU32_ReadUART3+0x50>
9d0044a0:	00863821 	addu	a3,a0,a2
        complete = 1;
      } else {
        message[num_bytes] = data;
9d0044a4:	a0e20000 	sb	v0,0(a3)
        ++num_bytes;
9d0044a8:	24c60001 	addiu	a2,a2,1
        // roll over if the array is too small
        if (num_bytes >= maxLength) {
9d0044ac:	00c5102a 	slt	v0,a2,a1
9d0044b0:	1000fff2 	b	9d00447c <NU32_ReadUART3+0x14>
9d0044b4:	0002300a 	movz	a2,zero,v0
        }
      }
    }
  }
  // end the string
  message[num_bytes] = '\0';
9d0044b8:	00862021 	addu	a0,a0,a2
}
9d0044bc:	03e00008 	jr	ra
9d0044c0:	a0800000 	sb	zero,0(a0)

9d0044c4 <NU32_WriteUART3>:

// Write a character array using UART3
void NU32_WriteUART3(const char * string) {
  while (*string != '\0') {
9d0044c4:	80850000 	lb	a1,0(a0)
9d0044c8:	10a0000b 	beqz	a1,9d0044f8 <NU32_WriteUART3+0x34>
9d0044cc:	3c03bf80 	lui	v1,0xbf80
    while (U3STAbits.UTXBF) {
      ; // wait until tx buffer isn't full
    }
    U3TXREG = *string;
9d0044d0:	3c06bf80 	lui	a2,0xbf80
    while (U3STAbits.UTXBF) {
9d0044d4:	8c626410 	lw	v0,25616(v1)
9d0044d8:	7c420240 	ext	v0,v0,0x9,0x1
9d0044dc:	1440fffd 	bnez	v0,9d0044d4 <NU32_WriteUART3+0x10>
9d0044e0:	00000000 	nop
    U3TXREG = *string;
9d0044e4:	acc56420 	sw	a1,25632(a2)
    ++string;
9d0044e8:	24840001 	addiu	a0,a0,1
  while (*string != '\0') {
9d0044ec:	80850000 	lb	a1,0(a0)
9d0044f0:	14a0fff8 	bnez	a1,9d0044d4 <NU32_WriteUART3+0x10>
9d0044f4:	00000000 	nop
  }
}
9d0044f8:	03e00008 	jr	ra
9d0044fc:	00000000 	nop

Disassembly of section .text.free:

9d004500 <free>:
9d004500:	10800064 	beqz	a0,9d004694 <free+0x194>
9d004504:	00000000 	nop
9d004508:	8c82fffc 	lw	v0,-4(a0)
9d00450c:	27bdffd0 	addiu	sp,sp,-48
9d004510:	afb2001c 	sw	s2,28(sp)
9d004514:	00409025 	move	s2,v0
9d004518:	afb00014 	sw	s0,20(sp)
9d00451c:	7c120004 	ins	s2,zero,0x0,0x1
9d004520:	2490fff8 	addiu	s0,a0,-8
9d004524:	afb10018 	sw	s1,24(sp)
9d004528:	02128821 	addu	s1,s0,s2
9d00452c:	8e230000 	lw	v1,0(s1)
9d004530:	afb40024 	sw	s4,36(sp)
9d004534:	afbf002c 	sw	ra,44(sp)
9d004538:	afb50028 	sw	s5,40(sp)
9d00453c:	afb30020 	sw	s3,32(sp)
9d004540:	10430003 	beq	v0,v1,9d004550 <free+0x50>
9d004544:	2414fffe 	li	s4,-2
9d004548:	a0000000 	sb	zero,0(zero)
9d00454c:	00000034 	teq	zero,zero
9d004550:	8e020000 	lw	v0,0(s0)
9d004554:	8e230004 	lw	v1,4(s1)
9d004558:	00431024 	and	v0,v0,v1
9d00455c:	30420001 	andi	v0,v0,0x1
9d004560:	1440000e 	bnez	v0,9d00459c <free+0x9c>
9d004564:	36420001 	ori	v0,s2,0x1
9d004568:	0f401afb 	jal	9d006bec <alloc_rev>
9d00456c:	02002025 	move	a0,s0
9d004570:	54400042 	bnezl	v0,9d00467c <free+0x17c>
9d004574:	8e020000 	lw	v0,0(s0)
9d004578:	0f401b50 	jal	9d006d40 <alloc_fwd>
9d00457c:	02202025 	move	a0,s1
9d004580:	5040fff4 	beqzl	v0,9d004554 <free+0x54>
9d004584:	8e020000 	lw	v0,0(s0)
9d004588:	8e220004 	lw	v0,4(s1)
9d00458c:	02821024 	and	v0,s4,v0
9d004590:	02429021 	addu	s2,s2,v0
9d004594:	1000ffee 	b	9d004550 <free+0x50>
9d004598:	02228821 	addu	s1,s1,v0
9d00459c:	ae020004 	sw	v0,4(s0)
9d0045a0:	02402025 	move	a0,s2
9d0045a4:	0f401b87 	jal	9d006e1c <bin_index>
9d0045a8:	ae220000 	sw	v0,0(s1)
9d0045ac:	00402025 	move	a0,v0
9d0045b0:	0f401dd4 	jal	9d007750 <lock_bin>
9d0045b4:	00409825 	move	s3,v0
9d0045b8:	8e020000 	lw	v0,0(s0)
9d0045bc:	8e230004 	lw	v1,4(s1)
9d0045c0:	00431024 	and	v0,v0,v1
9d0045c4:	30420001 	andi	v0,v0,0x1
9d0045c8:	1040ffe7 	beqz	v0,9d004568 <free+0x68>
9d0045cc:	3c15a000 	lui	s5,0xa000
9d0045d0:	8ea40010 	lw	a0,16(s5)
9d0045d4:	8ea50014 	lw	a1,20(s5)
9d0045d8:	02603025 	move	a2,s3
9d0045dc:	0f401da8 	jal	9d0076a0 <__lshrdi3>
9d0045e0:	26b40010 	addiu	s4,s5,16
9d0045e4:	30420001 	andi	v0,v0,0x1
9d0045e8:	54400010 	bnezl	v0,9d00462c <free+0x12c>
9d0045ec:	26730001 	addiu	s3,s3,1
9d0045f0:	00002825 	move	a1,zero
9d0045f4:	02603025 	move	a2,s3
9d0045f8:	0f401db7 	jal	9d0076dc <__ashldi3>
9d0045fc:	24040001 	li	a0,1
9d004600:	10400004 	beqz	v0,9d004614 <free+0x114>
9d004604:	00602825 	move	a1,v1
9d004608:	8ea40010 	lw	a0,16(s5)
9d00460c:	00822025 	or	a0,a0,v0
9d004610:	aea40010 	sw	a0,16(s5)
9d004614:	50a00005 	beqzl	a1,9d00462c <free+0x12c>
9d004618:	26730001 	addiu	s3,s3,1
9d00461c:	8e820004 	lw	v0,4(s4)
9d004620:	00431025 	or	v0,v0,v1
9d004624:	ae820004 	sw	v0,4(s4)
9d004628:	26730001 	addiu	s3,s3,1
9d00462c:	001398c0 	sll	s3,s3,0x3
9d004630:	02939821 	addu	s3,s4,s3
9d004634:	2662fff8 	addiu	v0,s3,-8
9d004638:	ae120004 	sw	s2,4(s0)
9d00463c:	ae320000 	sw	s2,0(s1)
9d004640:	ae020008 	sw	v0,8(s0)
9d004644:	8e620004 	lw	v0,4(s3)
9d004648:	8fbf002c 	lw	ra,44(sp)
9d00464c:	8fb50028 	lw	s5,40(sp)
9d004650:	ae02000c 	sw	v0,12(s0)
9d004654:	ae700004 	sw	s0,4(s3)
9d004658:	8e02000c 	lw	v0,12(s0)
9d00465c:	8fb40024 	lw	s4,36(sp)
9d004660:	8fb30020 	lw	s3,32(sp)
9d004664:	ac500008 	sw	s0,8(v0)
9d004668:	8fb2001c 	lw	s2,28(sp)
9d00466c:	8fb10018 	lw	s1,24(sp)
9d004670:	8fb00014 	lw	s0,20(sp)
9d004674:	03e00008 	jr	ra
9d004678:	27bd0030 	addiu	sp,sp,48
9d00467c:	02821024 	and	v0,s4,v0
9d004680:	02028023 	subu	s0,s0,v0
9d004684:	8e020004 	lw	v0,4(s0)
9d004688:	02821024 	and	v0,s4,v0
9d00468c:	1000ffba 	b	9d004578 <free+0x78>
9d004690:	02429021 	addu	s2,s2,v0
9d004694:	03e00008 	jr	ra
9d004698:	00000000 	nop

Disassembly of section .text.__pop_int:

9d00469c <__pop_int>:
9d00469c:	24020088 	li	v0,136
9d0046a0:	10a2003f 	beq	a1,v0,9d0047a0 <__pop_int+0x104>
9d0046a4:	28a20089 	slti	v0,a1,137
9d0046a8:	1040001b 	beqz	v0,9d004718 <__pop_int+0x7c>
9d0046ac:	240200a0 	li	v0,160
9d0046b0:	24020081 	li	v0,129
9d0046b4:	10a20053 	beq	a1,v0,9d004804 <__pop_int+0x168>
9d0046b8:	28a20082 	slti	v0,a1,130
9d0046bc:	10400006 	beqz	v0,9d0046d8 <__pop_int+0x3c>
9d0046c0:	24020082 	li	v0,130
9d0046c4:	24020080 	li	v0,128
9d0046c8:	50a2004f 	beql	a1,v0,9d004808 <__pop_int+0x16c>
9d0046cc:	8ce20000 	lw	v0,0(a3)
9d0046d0:	03e00008 	jr	ra
9d0046d4:	00001025 	move	v0,zero
9d0046d8:	50a2003a 	beql	a1,v0,9d0047c4 <__pop_int+0x128>
9d0046dc:	8ce20000 	lw	v0,0(a3)
9d0046e0:	24020084 	li	v0,132
9d0046e4:	14a2fffa 	bne	a1,v0,9d0046d0 <__pop_int+0x34>
9d0046e8:	00000000 	nop
9d0046ec:	8ce20000 	lw	v0,0(a3)
9d0046f0:	24430004 	addiu	v1,v0,4
9d0046f4:	8c420000 	lw	v0,0(v0)
9d0046f8:	10c00026 	beqz	a2,9d004794 <__pop_int+0xf8>
9d0046fc:	ace30000 	sw	v1,0(a3)
9d004700:	7c021620 	seh	v0,v0
9d004704:	ac820000 	sw	v0,0(a0)
9d004708:	000217c3 	sra	v0,v0,0x1f
9d00470c:	ac820004 	sw	v0,4(a0)
9d004710:	03e00008 	jr	ra
9d004714:	24020001 	li	v0,1
9d004718:	50a20036 	beql	a1,v0,9d0047f4 <__pop_int+0x158>
9d00471c:	8ce20000 	lw	v0,0(a3)
9d004720:	28a200a1 	slti	v0,a1,161
9d004724:	10400011 	beqz	v0,9d00476c <__pop_int+0xd0>
9d004728:	240200c0 	li	v0,192
9d00472c:	24020090 	li	v0,144
9d004730:	14a2ffe7 	bne	a1,v0,9d0046d0 <__pop_int+0x34>
9d004734:	00000000 	nop
9d004738:	8ce20000 	lw	v0,0(a3)
9d00473c:	24420007 	addiu	v0,v0,7
9d004740:	7c021004 	ins	v0,zero,0x0,0x3
9d004744:	8c480000 	lw	t0,0(v0)
9d004748:	8c490004 	lw	t1,4(v0)
9d00474c:	24420008 	addiu	v0,v0,8
9d004750:	ace20000 	sw	v0,0(a3)
9d004754:	ac880000 	sw	t0,0(a0)
9d004758:	ac890004 	sw	t1,4(a0)
9d00475c:	10c00001 	beqz	a2,9d004764 <__pop_int+0xc8>
9d004760:	24020001 	li	v0,1
9d004764:	03e00008 	jr	ra
9d004768:	00000000 	nop
9d00476c:	50a20005 	beql	a1,v0,9d004784 <__pop_int+0xe8>
9d004770:	8ce20000 	lw	v0,0(a3)
9d004774:	240200f0 	li	v0,240
9d004778:	14a2ffd5 	bne	a1,v0,9d0046d0 <__pop_int+0x34>
9d00477c:	00000000 	nop
9d004780:	8ce20000 	lw	v0,0(a3)
9d004784:	24430004 	addiu	v1,v0,4
9d004788:	ace30000 	sw	v1,0(a3)
9d00478c:	10000002 	b	9d004798 <__pop_int+0xfc>
9d004790:	8c420000 	lw	v0,0(v0)
9d004794:	3042ffff 	andi	v0,v0,0xffff
9d004798:	10000020 	b	9d00481c <__pop_int+0x180>
9d00479c:	ac820000 	sw	v0,0(a0)
9d0047a0:	8ce20000 	lw	v0,0(a3)
9d0047a4:	24430004 	addiu	v1,v0,4
9d0047a8:	8c420000 	lw	v0,0(v0)
9d0047ac:	10c00003 	beqz	a2,9d0047bc <__pop_int+0x120>
9d0047b0:	ace30000 	sw	v1,0(a3)
9d0047b4:	1000ffd3 	b	9d004704 <__pop_int+0x68>
9d0047b8:	7c021420 	seb	v0,v0
9d0047bc:	1000fff6 	b	9d004798 <__pop_int+0xfc>
9d0047c0:	304200ff 	andi	v0,v0,0xff
9d0047c4:	24420007 	addiu	v0,v0,7
9d0047c8:	7c021004 	ins	v0,zero,0x0,0x3
9d0047cc:	8c480000 	lw	t0,0(v0)
9d0047d0:	8c490004 	lw	t1,4(v0)
9d0047d4:	24420008 	addiu	v0,v0,8
9d0047d8:	ace20000 	sw	v0,0(a3)
9d0047dc:	ac880000 	sw	t0,0(a0)
9d0047e0:	ac890004 	sw	t1,4(a0)
9d0047e4:	10c0ffdf 	beqz	a2,9d004764 <__pop_int+0xc8>
9d0047e8:	24020001 	li	v0,1
9d0047ec:	03e00008 	jr	ra
9d0047f0:	00000000 	nop
9d0047f4:	24430004 	addiu	v1,v0,4
9d0047f8:	ace30000 	sw	v1,0(a3)
9d0047fc:	1000ffc1 	b	9d004704 <__pop_int+0x68>
9d004800:	8c420000 	lw	v0,0(v0)
9d004804:	8ce20000 	lw	v0,0(a3)
9d004808:	24430004 	addiu	v1,v0,4
9d00480c:	ace30000 	sw	v1,0(a3)
9d004810:	8c420000 	lw	v0,0(v0)
9d004814:	14c0ffbc 	bnez	a2,9d004708 <__pop_int+0x6c>
9d004818:	ac820000 	sw	v0,0(a0)
9d00481c:	1000ffbc 	b	9d004710 <__pop_int+0x74>
9d004820:	ac800004 	sw	zero,4(a0)

Disassembly of section .text.__push_int:

9d004824 <__push_int>:
9d004824:	24020088 	li	v0,136
9d004828:	50a2003c 	beql	a1,v0,9d00491c <__push_int+0xf8>
9d00482c:	8ce20000 	lw	v0,0(a3)
9d004830:	28a20089 	slti	v0,a1,137
9d004834:	1040001a 	beqz	v0,9d0048a0 <__push_int+0x7c>
9d004838:	240200a0 	li	v0,160
9d00483c:	24020081 	li	v0,129
9d004840:	50a2003f 	beql	a1,v0,9d004940 <__push_int+0x11c>
9d004844:	8ce20000 	lw	v0,0(a3)
9d004848:	28a20082 	slti	v0,a1,130
9d00484c:	10400006 	beqz	v0,9d004868 <__push_int+0x44>
9d004850:	24020082 	li	v0,130
9d004854:	24020080 	li	v0,128
9d004858:	50a20046 	beql	a1,v0,9d004974 <__push_int+0x150>
9d00485c:	8ce20000 	lw	v0,0(a3)
9d004860:	03e00008 	jr	ra
9d004864:	00001025 	move	v0,zero
9d004868:	10a20015 	beq	a1,v0,9d0048c0 <__push_int+0x9c>
9d00486c:	24020084 	li	v0,132
9d004870:	14a2fffb 	bne	a1,v0,9d004860 <__push_int+0x3c>
9d004874:	00000000 	nop
9d004878:	8ce20000 	lw	v0,0(a3)
9d00487c:	8c830000 	lw	v1,0(a0)
9d004880:	24440004 	addiu	a0,v0,4
9d004884:	ace40000 	sw	a0,0(a3)
9d004888:	8c420000 	lw	v0,0(v0)
9d00488c:	a4430000 	sh	v1,0(v0)
9d004890:	10c00001 	beqz	a2,9d004898 <__push_int+0x74>
9d004894:	24020001 	li	v0,1
9d004898:	03e00008 	jr	ra
9d00489c:	00000000 	nop
9d0048a0:	50a20018 	beql	a1,v0,9d004904 <__push_int+0xe0>
9d0048a4:	8ce20000 	lw	v0,0(a3)
9d0048a8:	28a200a1 	slti	v0,a1,161
9d0048ac:	1040000f 	beqz	v0,9d0048ec <__push_int+0xc8>
9d0048b0:	240200c0 	li	v0,192
9d0048b4:	24020090 	li	v0,144
9d0048b8:	14a2ffe9 	bne	a1,v0,9d004860 <__push_int+0x3c>
9d0048bc:	00000000 	nop
9d0048c0:	8ce20000 	lw	v0,0(a3)
9d0048c4:	10c00027 	beqz	a2,9d004964 <__push_int+0x140>
9d0048c8:	24430004 	addiu	v1,v0,4
9d0048cc:	ace30000 	sw	v1,0(a3)
9d0048d0:	8c850004 	lw	a1,4(a0)
9d0048d4:	8c840000 	lw	a0,0(a0)
9d0048d8:	8c420000 	lw	v0,0(v0)
9d0048dc:	ac440000 	sw	a0,0(v0)
9d0048e0:	ac450004 	sw	a1,4(v0)
9d0048e4:	03e00008 	jr	ra
9d0048e8:	24020001 	li	v0,1
9d0048ec:	50a20005 	beql	a1,v0,9d004904 <__push_int+0xe0>
9d0048f0:	8ce20000 	lw	v0,0(a3)
9d0048f4:	240200f0 	li	v0,240
9d0048f8:	14a2ffd9 	bne	a1,v0,9d004860 <__push_int+0x3c>
9d0048fc:	00000000 	nop
9d004900:	8ce20000 	lw	v0,0(a3)
9d004904:	8c830000 	lw	v1,0(a0)
9d004908:	24440004 	addiu	a0,v0,4
9d00490c:	ace40000 	sw	a0,0(a3)
9d004910:	8c420000 	lw	v0,0(v0)
9d004914:	1000fff3 	b	9d0048e4 <__push_int+0xc0>
9d004918:	ac430000 	sw	v1,0(v0)
9d00491c:	8c830000 	lw	v1,0(a0)
9d004920:	24440004 	addiu	a0,v0,4
9d004924:	ace40000 	sw	a0,0(a3)
9d004928:	8c420000 	lw	v0,0(v0)
9d00492c:	a0430000 	sb	v1,0(v0)
9d004930:	10c0ffd9 	beqz	a2,9d004898 <__push_int+0x74>
9d004934:	24020001 	li	v0,1
9d004938:	03e00008 	jr	ra
9d00493c:	00000000 	nop
9d004940:	8c830000 	lw	v1,0(a0)
9d004944:	24440004 	addiu	a0,v0,4
9d004948:	ace40000 	sw	a0,0(a3)
9d00494c:	8c420000 	lw	v0,0(v0)
9d004950:	ac430000 	sw	v1,0(v0)
9d004954:	10c0ffd0 	beqz	a2,9d004898 <__push_int+0x74>
9d004958:	24020001 	li	v0,1
9d00495c:	03e00008 	jr	ra
9d004960:	00000000 	nop
9d004964:	8c850004 	lw	a1,4(a0)
9d004968:	8c840000 	lw	a0,0(a0)
9d00496c:	1000ffda 	b	9d0048d8 <__push_int+0xb4>
9d004970:	ace30000 	sw	v1,0(a3)
9d004974:	8c830000 	lw	v1,0(a0)
9d004978:	24440004 	addiu	a0,v0,4
9d00497c:	ace40000 	sw	a0,0(a3)
9d004980:	8c420000 	lw	v0,0(v0)
9d004984:	ac430000 	sw	v1,0(v0)
9d004988:	24020001 	li	v0,1
9d00498c:	03e00008 	jr	ra
9d004990:	00000000 	nop

Disassembly of section .text.__scan_s:

9d004994 <__scan_s>:
9d004994:	27bdffc8 	addiu	sp,sp,-56
9d004998:	afb50028 	sw	s5,40(sp)
9d00499c:	afb30020 	sw	s3,32(sp)
9d0049a0:	afb2001c 	sw	s2,28(sp)
9d0049a4:	afb10018 	sw	s1,24(sp)
9d0049a8:	afb00014 	sw	s0,20(sp)
9d0049ac:	afbf0034 	sw	ra,52(sp)
9d0049b0:	afb70030 	sw	s7,48(sp)
9d0049b4:	afb6002c 	sw	s6,44(sp)
9d0049b8:	afb40024 	sw	s4,36(sp)
9d0049bc:	0080a825 	move	s5,a0
9d0049c0:	00a08025 	move	s0,a1
9d0049c4:	00c09825 	move	s3,a2
9d0049c8:	00e09025 	move	s2,a3
9d0049cc:	10c00006 	beqz	a2,9d0049e8 <__scan_s+0x54>
9d0049d0:	8fb10048 	lw	s1,72(sp)
9d0049d4:	0f401840 	jal	9d006100 <__skipws>
9d0049d8:	00000000 	nop
9d0049dc:	8e430000 	lw	v1,0(s2)
9d0049e0:	00621021 	addu	v0,v1,v0
9d0049e4:	ae420000 	sw	v0,0(s2)
9d0049e8:	8e140008 	lw	s4,8(s0)
9d0049ec:	2416ffff 	li	s6,-1
9d0049f0:	00008025 	move	s0,zero
9d0049f4:	24170020 	li	s7,32
9d0049f8:	52800005 	beqzl	s4,9d004a10 <__scan_s+0x7c>
9d0049fc:	8ea2003c 	lw	v0,60(s5)
9d004a00:	0214102a 	slt	v0,s0,s4
9d004a04:	1040001f 	beqz	v0,9d004a84 <__scan_s+0xf0>
9d004a08:	00000000 	nop
9d004a0c:	8ea2003c 	lw	v0,60(s5)
9d004a10:	8ea3004c 	lw	v1,76(s5)
9d004a14:	0043182b 	sltu	v1,v0,v1
9d004a18:	10600014 	beqz	v1,9d004a6c <__scan_s+0xd8>
9d004a1c:	24430001 	addiu	v1,v0,1
9d004a20:	aea3003c 	sw	v1,60(s5)
9d004a24:	90420000 	lbu	v0,0(v0)
9d004a28:	12600024 	beqz	s3,9d004abc <__scan_s+0x128>
9d004a2c:	00000000 	nop
9d004a30:	10570004 	beq	v0,s7,9d004a44 <__scan_s+0xb0>
9d004a34:	2443fff7 	addiu	v1,v0,-9
9d004a38:	2c630005 	sltiu	v1,v1,5
9d004a3c:	1060001f 	beqz	v1,9d004abc <__scan_s+0x128>
9d004a40:	00000000 	nop
9d004a44:	8ea2004c 	lw	v0,76(s5)
9d004a48:	10400004 	beqz	v0,9d004a5c <__scan_s+0xc8>
9d004a4c:	00000000 	nop
9d004a50:	8ea2003c 	lw	v0,60(s5)
9d004a54:	2442ffff 	addiu	v0,v0,-1
9d004a58:	aea2003c 	sw	v0,60(s5)
9d004a5c:	16200022 	bnez	s1,9d004ae8 <__scan_s+0x154>
9d004a60:	02308821 	addu	s1,s1,s0
9d004a64:	1000000a 	b	9d004a90 <__scan_s+0xfc>
9d004a68:	0010102b 	sltu	v0,zero,s0
9d004a6c:	0f4014fb 	jal	9d0053ec <__shgetc>
9d004a70:	02a02025 	move	a0,s5
9d004a74:	1456ffec 	bne	v0,s6,9d004a28 <__scan_s+0x94>
9d004a78:	00000000 	nop
9d004a7c:	12000005 	beqz	s0,9d004a94 <__scan_s+0x100>
9d004a80:	8fbf0034 	lw	ra,52(sp)
9d004a84:	16200015 	bnez	s1,9d004adc <__scan_s+0x148>
9d004a88:	00000000 	nop
9d004a8c:	0010102b 	sltu	v0,zero,s0
9d004a90:	8fbf0034 	lw	ra,52(sp)
9d004a94:	8fb70030 	lw	s7,48(sp)
9d004a98:	8fb6002c 	lw	s6,44(sp)
9d004a9c:	8fb50028 	lw	s5,40(sp)
9d004aa0:	8fb40024 	lw	s4,36(sp)
9d004aa4:	8fb30020 	lw	s3,32(sp)
9d004aa8:	8fb2001c 	lw	s2,28(sp)
9d004aac:	8fb10018 	lw	s1,24(sp)
9d004ab0:	8fb00014 	lw	s0,20(sp)
9d004ab4:	03e00008 	jr	ra
9d004ab8:	27bd0038 	addiu	sp,sp,56
9d004abc:	12200002 	beqz	s1,9d004ac8 <__scan_s+0x134>
9d004ac0:	02301821 	addu	v1,s1,s0
9d004ac4:	a0620000 	sb	v0,0(v1)
9d004ac8:	8e420000 	lw	v0,0(s2)
9d004acc:	26100001 	addiu	s0,s0,1
9d004ad0:	24420001 	addiu	v0,v0,1
9d004ad4:	1000ffc8 	b	9d0049f8 <__scan_s+0x64>
9d004ad8:	ae420000 	sw	v0,0(s2)
9d004adc:	1260ffec 	beqz	s3,9d004a90 <__scan_s+0xfc>
9d004ae0:	0010102b 	sltu	v0,zero,s0
9d004ae4:	02308821 	addu	s1,s1,s0
9d004ae8:	1000ffe8 	b	9d004a8c <__scan_s+0xf8>
9d004aec:	a2200000 	sb	zero,0(s1)

Disassembly of section .text.__fmt_d:

9d004af0 <__fmt_d>:
9d004af0:	27bdffc0 	addiu	sp,sp,-64
9d004af4:	afb1002c 	sw	s1,44(sp)
9d004af8:	00808825 	move	s1,a0
9d004afc:	00c02025 	move	a0,a2
9d004b00:	8c870004 	lw	a3,4(a0)
9d004b04:	8ca20000 	lw	v0,0(a1)
9d004b08:	afb20030 	sw	s2,48(sp)
9d004b0c:	000797c2 	srl	s2,a3,0x1f
9d004b10:	afb40038 	sw	s4,56(sp)
9d004b14:	afb30034 	sw	s3,52(sp)
9d004b18:	afb00028 	sw	s0,40(sp)
9d004b1c:	afbf003c 	sw	ra,60(sp)
9d004b20:	00a08025 	move	s0,a1
9d004b24:	8ca30004 	lw	v1,4(a1)
9d004b28:	8cb30008 	lw	s3,8(a1)
9d004b2c:	afa20020 	sw	v0,32(sp)
9d004b30:	8cb4000c 	lw	s4,12(a1)
9d004b34:	12400040 	beqz	s2,9d004c38 <__fmt_d+0x148>
9d004b38:	8cc60000 	lw	a2,0(a2)
9d004b3c:	00063023 	negu	a2,a2
9d004b40:	0006202b 	sltu	a0,zero,a2
9d004b44:	00073823 	negu	a3,a3
9d004b48:	04600008 	bltz	v1,9d004b6c <__fmt_d+0x7c>
9d004b4c:	00e43823 	subu	a3,a3,a0
9d004b50:	7c020844 	ins	v0,zero,0x1,0x1
9d004b54:	16400005 	bnez	s2,9d004b6c <__fmt_d+0x7c>
9d004b58:	afa20020 	sw	v0,32(sp)
9d004b5c:	8fa20020 	lw	v0,32(sp)
9d004b60:	30430004 	andi	v1,v0,0x4
9d004b64:	1060002c 	beqz	v1,9d004c18 <__fmt_d+0x128>
9d004b68:	7c4200c0 	ext	v0,v0,0x3,0x1
9d004b6c:	2662ffff 	addiu	v0,s3,-1
9d004b70:	27a30020 	addiu	v1,sp,32
9d004b74:	afa30018 	sw	v1,24(sp)
9d004b78:	2403000a 	li	v1,10
9d004b7c:	afa30014 	sw	v1,20(sp)
9d004b80:	afa20010 	sw	v0,16(sp)
9d004b84:	0f401410 	jal	9d005040 <__cvt_u>
9d004b88:	02002025 	move	a0,s0
9d004b8c:	16400006 	bnez	s2,9d004ba8 <__fmt_d+0xb8>
9d004b90:	2403002d 	li	v1,45
9d004b94:	8fa30020 	lw	v1,32(sp)
9d004b98:	30640004 	andi	a0,v1,0x4
9d004b9c:	10800020 	beqz	a0,9d004c20 <__fmt_d+0x130>
9d004ba0:	30630008 	andi	v1,v1,0x8
9d004ba4:	2403002d 	li	v1,45
9d004ba8:	2442ffff 	addiu	v0,v0,-1
9d004bac:	2404002b 	li	a0,43
9d004bb0:	0072200b 	movn	a0,v1,s2
9d004bb4:	02821821 	addu	v1,s4,v0
9d004bb8:	a0640000 	sb	a0,0(v1)
9d004bbc:	8e060010 	lw	a2,16(s0)
9d004bc0:	8fa30020 	lw	v1,32(sp)
9d004bc4:	02603825 	move	a3,s3
9d004bc8:	24c6ffff 	addiu	a2,a2,-1
9d004bcc:	afa30010 	sw	v1,16(sp)
9d004bd0:	00c23023 	subu	a2,a2,v0
9d004bd4:	02822821 	addu	a1,s4,v0
9d004bd8:	0f401614 	jal	9d005850 <__pad>
9d004bdc:	02202025 	move	a0,s1
9d004be0:	8e230004 	lw	v1,4(s1)
9d004be4:	30630100 	andi	v1,v1,0x100
9d004be8:	10600004 	beqz	v1,9d004bfc <__fmt_d+0x10c>
9d004bec:	8fbf003c 	lw	ra,60(sp)
9d004bf0:	8e030004 	lw	v1,4(s0)
9d004bf4:	0043202a 	slt	a0,v0,v1
9d004bf8:	0064100b 	movn	v0,v1,a0
9d004bfc:	8fb40038 	lw	s4,56(sp)
9d004c00:	8fb30034 	lw	s3,52(sp)
9d004c04:	8fb20030 	lw	s2,48(sp)
9d004c08:	8fb1002c 	lw	s1,44(sp)
9d004c0c:	8fb00028 	lw	s0,40(sp)
9d004c10:	03e00008 	jr	ra
9d004c14:	27bd0040 	addiu	sp,sp,64
9d004c18:	1000ffd5 	b	9d004b70 <__fmt_d+0x80>
9d004c1c:	02621023 	subu	v0,s3,v0
9d004c20:	5060ffe7 	beqzl	v1,9d004bc0 <__fmt_d+0xd0>
9d004c24:	8e060010 	lw	a2,16(s0)
9d004c28:	2442ffff 	addiu	v0,v0,-1
9d004c2c:	02821821 	addu	v1,s4,v0
9d004c30:	1000ffe1 	b	9d004bb8 <__fmt_d+0xc8>
9d004c34:	24040020 	li	a0,32
9d004c38:	0463ffc6 	bgezl	v1,9d004b54 <__fmt_d+0x64>
9d004c3c:	7c020844 	ins	v0,zero,0x1,0x1
9d004c40:	1000ffc7 	b	9d004b60 <__fmt_d+0x70>
9d004c44:	8fa20020 	lw	v0,32(sp)

Disassembly of section .text.__scan_o:

9d004c48 <__scan_o>:
9d004c48:	27bdffc0 	addiu	sp,sp,-64
9d004c4c:	afb4002c 	sw	s4,44(sp)
9d004c50:	00e0a025 	move	s4,a3
9d004c54:	afb60034 	sw	s6,52(sp)
9d004c58:	afb50030 	sw	s5,48(sp)
9d004c5c:	afb30028 	sw	s3,40(sp)
9d004c60:	afb20024 	sw	s2,36(sp)
9d004c64:	afb10020 	sw	s1,32(sp)
9d004c68:	afbf003c 	sw	ra,60(sp)
9d004c6c:	afb70038 	sw	s7,56(sp)
9d004c70:	afb0001c 	sw	s0,28(sp)
9d004c74:	00808825 	move	s1,a0
9d004c78:	00a0a825 	move	s5,a1
9d004c7c:	8cd60008 	lw	s6,8(a2)
9d004c80:	8cd30010 	lw	s3,16(a2)
9d004c84:	0f401840 	jal	9d006100 <__skipws>
9d004c88:	8cd2000c 	lw	s2,12(a2)
9d004c8c:	8e830000 	lw	v1,0(s4)
9d004c90:	00621021 	addu	v0,v1,v0
9d004c94:	16c00002 	bnez	s6,9d004ca0 <__scan_o+0x58>
9d004c98:	ae820000 	sw	v0,0(s4)
9d004c9c:	2676ffff 	addiu	s6,s3,-1
9d004ca0:	00008025 	move	s0,zero
9d004ca4:	2673ffff 	addiu	s3,s3,-1
9d004ca8:	2417ffff 	li	s7,-1
9d004cac:	0216102a 	slt	v0,s0,s6
9d004cb0:	50400015 	beqzl	v0,9d004d08 <__scan_o+0xc0>
9d004cb4:	02508021 	addu	s0,s2,s0
9d004cb8:	0213102a 	slt	v0,s0,s3
9d004cbc:	50400012 	beqzl	v0,9d004d08 <__scan_o+0xc0>
9d004cc0:	02508021 	addu	s0,s2,s0
9d004cc4:	8e22003c 	lw	v0,60(s1)
9d004cc8:	8e23004c 	lw	v1,76(s1)
9d004ccc:	0043182b 	sltu	v1,v0,v1
9d004cd0:	1060001b 	beqz	v1,9d004d40 <__scan_o+0xf8>
9d004cd4:	24430001 	addiu	v1,v0,1
9d004cd8:	ae23003c 	sw	v1,60(s1)
9d004cdc:	90420000 	lbu	v0,0(v0)
9d004ce0:	2443ffd0 	addiu	v1,v0,-48
9d004ce4:	2c630008 	sltiu	v1,v1,8
9d004ce8:	14600026 	bnez	v1,9d004d84 <__scan_o+0x13c>
9d004cec:	02501821 	addu	v1,s2,s0
9d004cf0:	8e22004c 	lw	v0,76(s1)
9d004cf4:	10400004 	beqz	v0,9d004d08 <__scan_o+0xc0>
9d004cf8:	02508021 	addu	s0,s2,s0
9d004cfc:	8e22003c 	lw	v0,60(s1)
9d004d00:	2442ffff 	addiu	v0,v0,-1
9d004d04:	ae22003c 	sw	v0,60(s1)
9d004d08:	02402025 	move	a0,s2
9d004d0c:	a2000000 	sb	zero,0(s0)
9d004d10:	24060008 	li	a2,8
9d004d14:	0f401e07 	jal	9d00781c <strtoull>
9d004d18:	27a50010 	addiu	a1,sp,16
9d004d1c:	aea20000 	sw	v0,0(s5)
9d004d20:	8fa20010 	lw	v0,16(sp)
9d004d24:	aea30004 	sw	v1,4(s5)
9d004d28:	2404fffe 	li	a0,-2
9d004d2c:	00521026 	xor	v0,v0,s2
9d004d30:	24030001 	li	v1,1
9d004d34:	0082180a 	movz	v1,a0,v0
9d004d38:	10000007 	b	9d004d58 <__scan_o+0x110>
9d004d3c:	00601025 	move	v0,v1
9d004d40:	0f4014fb 	jal	9d0053ec <__shgetc>
9d004d44:	02202025 	move	a0,s1
9d004d48:	1457ffe6 	bne	v0,s7,9d004ce4 <__scan_o+0x9c>
9d004d4c:	2443ffd0 	addiu	v1,v0,-48
9d004d50:	1600ffed 	bnez	s0,9d004d08 <__scan_o+0xc0>
9d004d54:	02508021 	addu	s0,s2,s0
9d004d58:	8fbf003c 	lw	ra,60(sp)
9d004d5c:	8fb70038 	lw	s7,56(sp)
9d004d60:	8fb60034 	lw	s6,52(sp)
9d004d64:	8fb50030 	lw	s5,48(sp)
9d004d68:	8fb4002c 	lw	s4,44(sp)
9d004d6c:	8fb30028 	lw	s3,40(sp)
9d004d70:	8fb20024 	lw	s2,36(sp)
9d004d74:	8fb10020 	lw	s1,32(sp)
9d004d78:	8fb0001c 	lw	s0,28(sp)
9d004d7c:	03e00008 	jr	ra
9d004d80:	27bd0040 	addiu	sp,sp,64
9d004d84:	a0620000 	sb	v0,0(v1)
9d004d88:	8e820000 	lw	v0,0(s4)
9d004d8c:	26100001 	addiu	s0,s0,1
9d004d90:	24420001 	addiu	v0,v0,1
9d004d94:	1000ffc5 	b	9d004cac <__scan_o+0x64>
9d004d98:	ae820000 	sw	v0,0(s4)

Disassembly of section .text._sbrk_init:

9d004d9c <_sbrk_init>:
9d004d9c:	27bdffd8 	addiu	sp,sp,-40
9d004da0:	afb40020 	sw	s4,32(sp)
9d004da4:	3c14a000 	lui	s4,0xa000
9d004da8:	8e820350 	lw	v0,848(s4)
9d004dac:	afbf0024 	sw	ra,36(sp)
9d004db0:	afb3001c 	sw	s3,28(sp)
9d004db4:	afb20018 	sw	s2,24(sp)
9d004db8:	afb10014 	sw	s1,20(sp)
9d004dbc:	1440002e 	bnez	v0,9d004e78 <_sbrk_init+0xdc>
9d004dc0:	afb00010 	sw	s0,16(sp)
9d004dc4:	3c12a000 	lui	s2,0xa000
9d004dc8:	8e510358 	lw	s1,856(s2)
9d004dcc:	16200003 	bnez	s1,9d004ddc <_sbrk_init+0x40>
9d004dd0:	3c13a000 	lui	s3,0xa000
9d004dd4:	3c11a000 	lui	s1,0xa000
9d004dd8:	26310368 	addiu	s1,s1,872
9d004ddc:	8e700354 	lw	s0,852(s3)
9d004de0:	16000006 	bnez	s0,9d004dfc <_sbrk_init+0x60>
9d004de4:	00111f82 	srl	v1,s1,0x1e
9d004de8:	3c10a000 	lui	s0,0xa000
9d004dec:	3c020000 	lui	v0,0x0
9d004df0:	26100368 	addiu	s0,s0,872
9d004df4:	24420000 	addiu	v0,v0,0
9d004df8:	02028021 	addu	s0,s0,v0
9d004dfc:	24020002 	li	v0,2
9d004e00:	50620001 	beql	v1,v0,9d004e08 <_sbrk_init+0x6c>
9d004e04:	7e31e000 	ext	s1,s1,0x0,0x1d
9d004e08:	00101f82 	srl	v1,s0,0x1e
9d004e0c:	24020002 	li	v0,2
9d004e10:	50620001 	beql	v1,v0,9d004e18 <_sbrk_init+0x7c>
9d004e14:	7e10e000 	ext	s0,s0,0x0,0x1d
9d004e18:	0f401e49 	jal	9d007924 <_stub_sbd_memlayout>
9d004e1c:	00000000 	nop
9d004e20:	8c430000 	lw	v1,0(v0)
9d004e24:	8c420004 	lw	v0,4(v0)
9d004e28:	0223202b 	sltu	a0,s1,v1
9d004e2c:	14800004 	bnez	a0,9d004e40 <_sbrk_init+0xa4>
9d004e30:	00621021 	addu	v0,v1,v0
9d004e34:	0222202b 	sltu	a0,s1,v0
9d004e38:	54800029 	bnezl	a0,9d004ee0 <_sbrk_init+0x144>
9d004e3c:	0211182b 	sltu	v1,s0,s1
9d004e40:	3c04a000 	lui	a0,0xa000
9d004e44:	24840004 	addiu	a0,a0,4
9d004e48:	7c84e000 	ext	a0,a0,0x0,0x1d
9d004e4c:	0064202b 	sltu	a0,v1,a0
9d004e50:	14800009 	bnez	a0,9d004e78 <_sbrk_init+0xdc>
9d004e54:	0203202b 	sltu	a0,s0,v1
9d004e58:	14800005 	bnez	a0,9d004e70 <_sbrk_init+0xd4>
9d004e5c:	0062202b 	sltu	a0,v1,v0
9d004e60:	0202202b 	sltu	a0,s0,v0
9d004e64:	5480000c 	bnezl	a0,9d004e98 <_sbrk_init+0xfc>
9d004e68:	02001025 	move	v0,s0
9d004e6c:	0062202b 	sltu	a0,v1,v0
9d004e70:	1480000a 	bnez	a0,9d004e9c <_sbrk_init+0x100>
9d004e74:	3c04a000 	lui	a0,0xa000
9d004e78:	8fbf0024 	lw	ra,36(sp)
9d004e7c:	8fb40020 	lw	s4,32(sp)
9d004e80:	8fb3001c 	lw	s3,28(sp)
9d004e84:	8fb20018 	lw	s2,24(sp)
9d004e88:	8fb10014 	lw	s1,20(sp)
9d004e8c:	8fb00010 	lw	s0,16(sp)
9d004e90:	03e00008 	jr	ra
9d004e94:	27bd0028 	addiu	sp,sp,40
9d004e98:	3c04a000 	lui	a0,0xa000
9d004e9c:	24840004 	addiu	a0,a0,4
9d004ea0:	00042742 	srl	a0,a0,0x1d
9d004ea4:	24050005 	li	a1,5
9d004ea8:	14850009 	bne	a0,a1,9d004ed0 <_sbrk_init+0x134>
9d004eac:	24050004 	li	a1,4
9d004eb0:	3c04a000 	lui	a0,0xa000
9d004eb4:	00641825 	or	v1,v1,a0
9d004eb8:	00441025 	or	v0,v0,a0
9d004ebc:	ae430358 	sw	v1,856(s2)
9d004ec0:	ae620354 	sw	v0,852(s3)
9d004ec4:	8e420358 	lw	v0,856(s2)
9d004ec8:	1000ffeb 	b	9d004e78 <_sbrk_init+0xdc>
9d004ecc:	ae820350 	sw	v0,848(s4)
9d004ed0:	5485fffc 	bnel	a0,a1,9d004ec4 <_sbrk_init+0x128>
9d004ed4:	ae420358 	sw	v0,856(s2)
9d004ed8:	1000fff6 	b	9d004eb4 <_sbrk_init+0x118>
9d004edc:	3c048000 	lui	a0,0x8000
9d004ee0:	1460ffed 	bnez	v1,9d004e98 <_sbrk_init+0xfc>
9d004ee4:	02201825 	move	v1,s1
9d004ee8:	1000ffde 	b	9d004e64 <_sbrk_init+0xc8>
9d004eec:	0202202b 	sltu	a0,s0,v0

Disassembly of section .text.__read_int:

9d004ef0 <__read_int>:
9d004ef0:	27bdffc8 	addiu	sp,sp,-56
9d004ef4:	afb2001c 	sw	s2,28(sp)
9d004ef8:	00c09025 	move	s2,a2
9d004efc:	afb50028 	sw	s5,40(sp)
9d004f00:	afb40024 	sw	s4,36(sp)
9d004f04:	afb30020 	sw	s3,32(sp)
9d004f08:	afb10018 	sw	s1,24(sp)
9d004f0c:	afbf0034 	sw	ra,52(sp)
9d004f10:	afb70030 	sw	s7,48(sp)
9d004f14:	afb6002c 	sw	s6,44(sp)
9d004f18:	afb00014 	sw	s0,20(sp)
9d004f1c:	00808825 	move	s1,a0
9d004f20:	8cb50008 	lw	s5,8(a1)
9d004f24:	8cb40010 	lw	s4,16(a1)
9d004f28:	0f401840 	jal	9d006100 <__skipws>
9d004f2c:	8cb3000c 	lw	s3,12(a1)
9d004f30:	8e430000 	lw	v1,0(s2)
9d004f34:	00621021 	addu	v0,v1,v0
9d004f38:	16a00002 	bnez	s5,9d004f44 <__read_int+0x54>
9d004f3c:	ae420000 	sw	v0,0(s2)
9d004f40:	2695ffff 	addiu	s5,s4,-1
9d004f44:	00008025 	move	s0,zero
9d004f48:	2694ffff 	addiu	s4,s4,-1
9d004f4c:	2416ffff 	li	s6,-1
9d004f50:	2417fffd 	li	s7,-3
9d004f54:	0215102a 	slt	v0,s0,s5
9d004f58:	50400030 	beqzl	v0,9d00501c <__read_int+0x12c>
9d004f5c:	02708021 	addu	s0,s3,s0
9d004f60:	0214102a 	slt	v0,s0,s4
9d004f64:	5040002d 	beqzl	v0,9d00501c <__read_int+0x12c>
9d004f68:	02708021 	addu	s0,s3,s0
9d004f6c:	8e22003c 	lw	v0,60(s1)
9d004f70:	8e23004c 	lw	v1,76(s1)
9d004f74:	0043182b 	sltu	v1,v0,v1
9d004f78:	1060000e 	beqz	v1,9d004fb4 <__read_int+0xc4>
9d004f7c:	24430001 	addiu	v1,v0,1
9d004f80:	ae23003c 	sw	v1,60(s1)
9d004f84:	90420000 	lbu	v0,0(v0)
9d004f88:	2443ffd5 	addiu	v1,v0,-43
9d004f8c:	00771824 	and	v1,v1,s7
9d004f90:	00701825 	or	v1,v1,s0
9d004f94:	14600018 	bnez	v1,9d004ff8 <__read_int+0x108>
9d004f98:	2443ffd0 	addiu	v1,v0,-48
9d004f9c:	a2620000 	sb	v0,0(s3)
9d004fa0:	8e420000 	lw	v0,0(s2)
9d004fa4:	24100001 	li	s0,1
9d004fa8:	24420001 	addiu	v0,v0,1
9d004fac:	1000ffe9 	b	9d004f54 <__read_int+0x64>
9d004fb0:	ae420000 	sw	v0,0(s2)
9d004fb4:	0f4014fb 	jal	9d0053ec <__shgetc>
9d004fb8:	02202025 	move	a0,s1
9d004fbc:	1456fff3 	bne	v0,s6,9d004f8c <__read_int+0x9c>
9d004fc0:	2443ffd5 	addiu	v1,v0,-43
9d004fc4:	16000015 	bnez	s0,9d00501c <__read_int+0x12c>
9d004fc8:	02708021 	addu	s0,s3,s0
9d004fcc:	8fbf0034 	lw	ra,52(sp)
9d004fd0:	8fb70030 	lw	s7,48(sp)
9d004fd4:	8fb6002c 	lw	s6,44(sp)
9d004fd8:	8fb50028 	lw	s5,40(sp)
9d004fdc:	8fb40024 	lw	s4,36(sp)
9d004fe0:	8fb30020 	lw	s3,32(sp)
9d004fe4:	8fb2001c 	lw	s2,28(sp)
9d004fe8:	8fb10018 	lw	s1,24(sp)
9d004fec:	8fb00014 	lw	s0,20(sp)
9d004ff0:	03e00008 	jr	ra
9d004ff4:	27bd0038 	addiu	sp,sp,56
9d004ff8:	2c63000a 	sltiu	v1,v1,10
9d004ffc:	1460000a 	bnez	v1,9d005028 <__read_int+0x138>
9d005000:	02702021 	addu	a0,s3,s0
9d005004:	8e22004c 	lw	v0,76(s1)
9d005008:	10400004 	beqz	v0,9d00501c <__read_int+0x12c>
9d00500c:	02708021 	addu	s0,s3,s0
9d005010:	8e22003c 	lw	v0,60(s1)
9d005014:	2442ffff 	addiu	v0,v0,-1
9d005018:	ae22003c 	sw	v0,60(s1)
9d00501c:	a2000000 	sb	zero,0(s0)
9d005020:	1000ffea 	b	9d004fcc <__read_int+0xdc>
9d005024:	00001025 	move	v0,zero
9d005028:	a0820000 	sb	v0,0(a0)
9d00502c:	8e420000 	lw	v0,0(s2)
9d005030:	26100001 	addiu	s0,s0,1
9d005034:	24420001 	addiu	v0,v0,1
9d005038:	1000ffc6 	b	9d004f54 <__read_int+0x64>
9d00503c:	ae420000 	sw	v0,0(s2)

Disassembly of section .text.__cvt_u:

9d005040 <__cvt_u>:
9d005040:	27bdffc0 	addiu	sp,sp,-64
9d005044:	8c820010 	lw	v0,16(a0)
9d005048:	afb70034 	sw	s7,52(sp)
9d00504c:	8c880004 	lw	t0,4(a0)
9d005050:	8fb70058 	lw	s7,88(sp)
9d005054:	2442ffff 	addiu	v0,v0,-1
9d005058:	afbe0038 	sw	s8,56(sp)
9d00505c:	afb40028 	sw	s4,40(sp)
9d005060:	afb30024 	sw	s3,36(sp)
9d005064:	afb20020 	sw	s2,32(sp)
9d005068:	afb1001c 	sw	s1,28(sp)
9d00506c:	afb00018 	sw	s0,24(sp)
9d005070:	afbf003c 	sw	ra,60(sp)
9d005074:	afb60030 	sw	s6,48(sp)
9d005078:	afb5002c 	sw	s5,44(sp)
9d00507c:	00c08025 	move	s0,a2
9d005080:	00e08825 	move	s1,a3
9d005084:	8fb30054 	lw	s3,84(sp)
9d005088:	8c94000c 	lw	s4,12(a0)
9d00508c:	8efe0000 	lw	s8,0(s7)
9d005090:	05010002 	bgez	t0,9d00509c <__cvt_u+0x5c>
9d005094:	00409025 	move	s2,v0
9d005098:	24080001 	li	t0,1
9d00509c:	02821021 	addu	v0,s4,v0
9d0050a0:	a0400000 	sb	zero,0(v0)
9d0050a4:	0000a825 	move	s5,zero
9d0050a8:	24090001 	li	t1,1
9d0050ac:	33de0002 	andi	s8,s8,0x2
9d0050b0:	0013b7c3 	sra	s6,s3,0x1f
9d0050b4:	1e400010 	bgtz	s2,9d0050f8 <__cvt_u+0xb8>
9d0050b8:	02111025 	or	v0,s0,s1
9d0050bc:	5120002e 	beqzl	t1,9d005178 <__cvt_u+0x138>
9d0050c0:	8ee20000 	lw	v0,0(s7)
9d0050c4:	8fbf003c 	lw	ra,60(sp)
9d0050c8:	02401025 	move	v0,s2
9d0050cc:	8fbe0038 	lw	s8,56(sp)
9d0050d0:	8fb70034 	lw	s7,52(sp)
9d0050d4:	8fb60030 	lw	s6,48(sp)
9d0050d8:	8fb5002c 	lw	s5,44(sp)
9d0050dc:	8fb40028 	lw	s4,40(sp)
9d0050e0:	8fb30024 	lw	s3,36(sp)
9d0050e4:	8fb20020 	lw	s2,32(sp)
9d0050e8:	8fb1001c 	lw	s1,28(sp)
9d0050ec:	8fb00018 	lw	s0,24(sp)
9d0050f0:	03e00008 	jr	ra
9d0050f4:	27bd0040 	addiu	sp,sp,64
9d0050f8:	1440000a 	bnez	v0,9d005124 <__cvt_u+0xe4>
9d0050fc:	02002025 	move	a0,s0
9d005100:	01151023 	subu	v0,t0,s5
9d005104:	1c400008 	bgtz	v0,9d005128 <__cvt_u+0xe8>
9d005108:	02202825 	move	a1,s1
9d00510c:	8fa20050 	lw	v0,80(sp)
9d005110:	00551023 	subu	v0,v0,s5
9d005114:	1840ffe9 	blez	v0,9d0050bc <__cvt_u+0x7c>
9d005118:	00000000 	nop
9d00511c:	13c0ffe7 	beqz	s8,9d0050bc <__cvt_u+0x7c>
9d005120:	00000000 	nop
9d005124:	02202825 	move	a1,s1
9d005128:	02603025 	move	a2,s3
9d00512c:	02c03825 	move	a3,s6
9d005130:	afa80014 	sw	t0,20(sp)
9d005134:	0f400c88 	jal	9d003220 <__umoddi3>
9d005138:	2652ffff 	addiu	s2,s2,-1
9d00513c:	afa20010 	sw	v0,16(sp)
9d005140:	02921821 	addu	v1,s4,s2
9d005144:	24420030 	addiu	v0,v0,48
9d005148:	02002025 	move	a0,s0
9d00514c:	02202825 	move	a1,s1
9d005150:	a0620000 	sb	v0,0(v1)
9d005154:	02603025 	move	a2,s3
9d005158:	0f400d86 	jal	9d003618 <__udivdi3>
9d00515c:	02c03825 	move	a3,s6
9d005160:	00408025 	move	s0,v0
9d005164:	00608825 	move	s1,v1
9d005168:	26b50001 	addiu	s5,s5,1
9d00516c:	8fa80014 	lw	t0,20(sp)
9d005170:	1000ffd0 	b	9d0050b4 <__cvt_u+0x74>
9d005174:	8fa90010 	lw	t1,16(sp)
9d005178:	7c022104 	ins	v0,zero,0x4,0x1
9d00517c:	1000ffd1 	b	9d0050c4 <__cvt_u+0x84>
9d005180:	aee20000 	sw	v0,0(s7)

Disassembly of section .dinit:

9d005184 <.dinit>:
9d005184:	a0000218 	sb	zero,536(zero)
9d005188:	00000068 	0x68
9d00518c:	00000001 	movf	zero,zero,$fcc0
9d005190:	00000001 	movf	zero,zero,$fcc0
9d005194:	00000003 	sra	zero,zero,0x0
	...
9d0051ac:	9d005ec0 	0x9d005ec0
	...
9d0051bc:	9d007a5c 	0x9d007a5c
9d0051c0:	9d0064fc 	0x9d0064fc
	...
9d0051f8:	a0000004 	sb	zero,4(zero)
9d0051fc:	00000004 	sllv	zero,zero,zero
9d005200:	00000000 	nop
9d005204:	a0000280 	sb	zero,640(zero)
9d005208:	00000068 	0x68
9d00520c:	00000001 	movf	zero,zero,$fcc0
9d005210:	00000001 	movf	zero,zero,$fcc0
9d005214:	00000003 	sra	zero,zero,0x0
	...
9d00522c:	9d005ec0 	0x9d005ec0
	...
9d00523c:	9d007a5c 	0x9d007a5c
9d005240:	9d0064fc 	0x9d0064fc
	...
9d005278:	a0000008 	sb	zero,8(zero)
9d00527c:	00000210 	0x210
9d005280:	00000000 	nop
9d005284:	a00002e8 	sb	zero,744(zero)
9d005288:	00000050 	0x50
9d00528c:	00000000 	nop
9d005290:	a0000338 	sb	zero,824(zero)
9d005294:	00000024 	and	zero,zero,zero
9d005298:	00000000 	nop
9d00529c:	a000035c 	sb	zero,860(zero)
9d0052a0:	00000004 	sllv	zero,zero,zero
9d0052a4:	00000000 	nop
9d0052a8:	a0000000 	sb	zero,0(zero)
9d0052ac:	00000004 	sllv	zero,zero,zero
9d0052b0:	00000001 	movf	zero,zero,$fcc0
9d0052b4:	00000002 	srl	zero,zero,0x0
9d0052b8:	00000000 	nop
9d0052bc:	22222222 	addi	v0,s1,8738
9d0052c0:	22222222 	addi	v0,s1,8738

Disassembly of section .text._mon_putc:

9d0052c4 <_mon_putc>:
9d0052c4:	3c02a000 	lui	v0,0xa000
9d0052c8:	8c430000 	lw	v1,0(v0)
9d0052cc:	14600013 	bnez	v1,9d00531c <_mon_putc+0x58>
9d0052d0:	00803025 	move	a2,a0
9d0052d4:	3c020000 	lui	v0,0x0
9d0052d8:	27bdffe8 	addiu	sp,sp,-24
9d0052dc:	24420000 	addiu	v0,v0,0
9d0052e0:	10400006 	beqz	v0,9d0052fc <_mon_putc+0x38>
9d0052e4:	afbf0014 	sw	ra,20(sp)
9d0052e8:	0c000000 	jal	90000000 <_bmxdudba_address+0x8ffe0000>
9d0052ec:	00000000 	nop
9d0052f0:	8fbf0014 	lw	ra,20(sp)
9d0052f4:	03e00008 	jr	ra
9d0052f8:	27bd0018 	addiu	sp,sp,24
9d0052fc:	3c020000 	lui	v0,0x0
9d005300:	24420000 	addiu	v0,v0,0
9d005304:	10400025 	beqz	v0,9d00539c <_mon_putc+0xd8>
9d005308:	3c05bf80 	lui	a1,0xbf80
9d00530c:	0c000000 	jal	90000000 <_bmxdudba_address+0x8ffe0000>
9d005310:	00000000 	nop
9d005314:	1000fff7 	b	9d0052f4 <_mon_putc+0x30>
9d005318:	8fbf0014 	lw	ra,20(sp)
9d00531c:	3c02bf80 	lui	v0,0xbf80
9d005320:	24426010 	addiu	v0,v0,24592
9d005324:	1040002f 	beqz	v0,9d0053e4 <_mon_putc+0x120>
9d005328:	00000000 	nop
9d00532c:	24040001 	li	a0,1
9d005330:	14640012 	bne	v1,a0,9d00537c <_mon_putc+0xb8>
9d005334:	3c03bf80 	lui	v1,0xbf80
9d005338:	3c03bf80 	lui	v1,0xbf80
9d00533c:	3c04bf80 	lui	a0,0xbf80
9d005340:	3c05bf80 	lui	a1,0xbf80
9d005344:	24636020 	addiu	v1,v1,24608
9d005348:	24846018 	addiu	a0,a0,24600
9d00534c:	24a56008 	addiu	a1,a1,24584
9d005350:	34078000 	li	a3,0x8000
9d005354:	aca70000 	sw	a3,0(a1)
9d005358:	24050400 	li	a1,1024
9d00535c:	ac850000 	sw	a1,0(a0)
9d005360:	8c440000 	lw	a0,0(v0)
9d005364:	30840100 	andi	a0,a0,0x100
9d005368:	1080fffd 	beqz	a0,9d005360 <_mon_putc+0x9c>
9d00536c:	00000000 	nop
9d005370:	ac660000 	sw	a2,0(v1)
9d005374:	03e00008 	jr	ra
9d005378:	00000000 	nop
9d00537c:	3c04bf80 	lui	a0,0xbf80
9d005380:	3c05bf80 	lui	a1,0xbf80
9d005384:	3c02bf80 	lui	v0,0xbf80
9d005388:	24636820 	addiu	v1,v1,26656
9d00538c:	24846818 	addiu	a0,a0,26648
9d005390:	24a56808 	addiu	a1,a1,26632
9d005394:	1000ffee 	b	9d005350 <_mon_putc+0x8c>
9d005398:	24426810 	addiu	v0,v0,26640
9d00539c:	24a56808 	addiu	a1,a1,26632
9d0053a0:	3c04bf80 	lui	a0,0xbf80
9d0053a4:	34078000 	li	a3,0x8000
9d0053a8:	aca70000 	sw	a3,0(a1)
9d0053ac:	3c03bf80 	lui	v1,0xbf80
9d0053b0:	24846818 	addiu	a0,a0,26648
9d0053b4:	3c02bf80 	lui	v0,0xbf80
9d0053b8:	24050400 	li	a1,1024
9d0053bc:	24636820 	addiu	v1,v1,26656
9d0053c0:	24426810 	addiu	v0,v0,26640
9d0053c4:	ac850000 	sw	a1,0(a0)
9d0053c8:	8c440000 	lw	a0,0(v0)
9d0053cc:	30840100 	andi	a0,a0,0x100
9d0053d0:	1080fffd 	beqz	a0,9d0053c8 <_mon_putc+0x104>
9d0053d4:	00000000 	nop
9d0053d8:	ac660000 	sw	a2,0(v1)
9d0053dc:	1000ffc5 	b	9d0052f4 <_mon_putc+0x30>
9d0053e0:	8fbf0014 	lw	ra,20(sp)
9d0053e4:	03e00008 	jr	ra
9d0053e8:	00000000 	nop

Disassembly of section .text.__shgetc:

9d0053ec <__shgetc>:
9d0053ec:	27bdffe8 	addiu	sp,sp,-24
9d0053f0:	afb00010 	sw	s0,16(sp)
9d0053f4:	00808025 	move	s0,a0
9d0053f8:	8e030054 	lw	v1,84(s0)
9d0053fc:	8c840050 	lw	a0,80(a0)
9d005400:	00831025 	or	v0,a0,v1
9d005404:	10400011 	beqz	v0,9d00544c <__shgetc+0x60>
9d005408:	afbf0014 	sw	ra,20(sp)
9d00540c:	8e02005c 	lw	v0,92(s0)
9d005410:	0043282a 	slt	a1,v0,v1
9d005414:	14a0000d 	bnez	a1,9d00544c <__shgetc+0x60>
9d005418:	00000000 	nop
9d00541c:	54430006 	bnel	v0,v1,9d005438 <__shgetc+0x4c>
9d005420:	ae00004c 	sw	zero,76(s0)
9d005424:	8e020058 	lw	v0,88(s0)
9d005428:	0044102b 	sltu	v0,v0,a0
9d00542c:	14400007 	bnez	v0,9d00544c <__shgetc+0x60>
9d005430:	00000000 	nop
9d005434:	ae00004c 	sw	zero,76(s0)
9d005438:	2402ffff 	li	v0,-1
9d00543c:	8fbf0014 	lw	ra,20(sp)
9d005440:	8fb00010 	lw	s0,16(sp)
9d005444:	03e00008 	jr	ra
9d005448:	27bd0018 	addiu	sp,sp,24
9d00544c:	0f401c6c 	jal	9d0071b0 <__uflow>
9d005450:	02002025 	move	a0,s0
9d005454:	0442fff8 	bltzl	v0,9d005438 <__shgetc+0x4c>
9d005458:	ae00004c 	sw	zero,76(s0)
9d00545c:	8e040050 	lw	a0,80(s0)
9d005460:	8e060054 	lw	a2,84(s0)
9d005464:	8e030040 	lw	v1,64(s0)
9d005468:	8e07003c 	lw	a3,60(s0)
9d00546c:	00864025 	or	t0,a0,a2
9d005470:	11000014 	beqz	t0,9d0054c4 <__shgetc+0xd8>
9d005474:	00602825 	move	a1,v1
9d005478:	8e090058 	lw	t1,88(s0)
9d00547c:	8e05005c 	lw	a1,92(s0)
9d005480:	00894023 	subu	t0,a0,t1
9d005484:	0088502b 	sltu	t2,a0,t0
9d005488:	00c52823 	subu	a1,a2,a1
9d00548c:	00673023 	subu	a2,v1,a3
9d005490:	00aa2823 	subu	a1,a1,t2
9d005494:	000657c3 	sra	t2,a2,0x1f
9d005498:	0145582a 	slt	t3,t2,a1
9d00549c:	55600009 	bnezl	t3,9d0054c4 <__shgetc+0xd8>
9d0054a0:	00602825 	move	a1,v1
9d0054a4:	54aa0005 	bnel	a1,t2,9d0054bc <__shgetc+0xd0>
9d0054a8:	2484ffff 	addiu	a0,a0,-1
9d0054ac:	00c8402b 	sltu	t0,a2,t0
9d0054b0:	15000004 	bnez	t0,9d0054c4 <__shgetc+0xd8>
9d0054b4:	00602825 	move	a1,v1
9d0054b8:	2484ffff 	addiu	a0,a0,-1
9d0054bc:	00892023 	subu	a0,a0,t1
9d0054c0:	00e42821 	addu	a1,a3,a0
9d0054c4:	1060000c 	beqz	v1,9d0054f8 <__shgetc+0x10c>
9d0054c8:	ae05004c 	sw	a1,76(s0)
9d0054cc:	8e040058 	lw	a0,88(s0)
9d0054d0:	8e05005c 	lw	a1,92(s0)
9d0054d4:	00671823 	subu	v1,v1,a3
9d0054d8:	24630001 	addiu	v1,v1,1
9d0054dc:	000337c3 	sra	a2,v1,0x1f
9d0054e0:	00831821 	addu	v1,a0,v1
9d0054e4:	0064202b 	sltu	a0,v1,a0
9d0054e8:	00a62821 	addu	a1,a1,a2
9d0054ec:	00852021 	addu	a0,a0,a1
9d0054f0:	ae030058 	sw	v1,88(s0)
9d0054f4:	ae04005c 	sw	a0,92(s0)
9d0054f8:	90e3ffff 	lbu	v1,-1(a3)
9d0054fc:	5462ffcf 	bnel	v1,v0,9d00543c <__shgetc+0x50>
9d005500:	a0e2ffff 	sb	v0,-1(a3)
9d005504:	1000ffce 	b	9d005440 <__shgetc+0x54>
9d005508:	8fbf0014 	lw	ra,20(sp)

Disassembly of section .text:

9d00550c <main>:
#include "NU32.h"
#include <stdio.h>

#define BUF_SIZE 200

int main(){
9d00550c:	27bdff00 	addiu	sp,sp,-256
9d005510:	afbf00fc 	sw	ra,252(sp)
9d005514:	afb600f8 	sw	s6,248(sp)
9d005518:	afb500f4 	sw	s5,244(sp)
9d00551c:	afb400f0 	sw	s4,240(sp)
9d005520:	afb300ec 	sw	s3,236(sp)
9d005524:	afb200e8 	sw	s2,232(sp)
9d005528:	afb100e4 	sw	s1,228(sp)
    char buffer[BUF_SIZE];
    NU32_Startup(); // cache on, min flash wait, interrupts on, LED/button init, UART init
9d00552c:	0f4010d5 	jal	9d004354 <NU32_Startup>
9d005530:	afb000e0 	sw	s0,224(sp)
    NU32_LED1 = 1; // turn off the LEDs
9d005534:	3c02bf88 	lui	v0,0xbf88
9d005538:	90436160 	lbu	v1,24928(v0)
9d00553c:	24040001 	li	a0,1
9d005540:	7c830004 	ins	v1,a0,0x0,0x1
9d005544:	a0436160 	sb	v1,24928(v0)
    NU32_LED2 = 1;
9d005548:	90436160 	lbu	v1,24928(v0)
9d00554c:	7c830844 	ins	v1,a0,0x1,0x1
9d005550:	a0436160 	sb	v1,24928(v0)
    __builtin_disable_interrupts();
9d005554:	41626000 	di	v0
9d005558:	000000c0 	ehb
    // in future, initialize modules or peripherals here
    __builtin_enable_interrupts();
9d00555c:	41626020 	ei	v0
    while(1) {
        NU32_ReadUART3(buffer,BUF_SIZE); // we expect the next character to be a menu command
        NU32_LED2 = 1; // clear the error LED
9d005560:	3c10bf88 	lui	s0,0xbf88
                // handle q for quit. Later you may want to return to IDLE mode here.
                break;
            }
            case 'l':
            {
                NU32_WriteUART3("Turning on LED2...\r\n");
9d005564:	3c159d00 	lui	s5,0x9d00
9d005568:	26b51e0c 	addiu	s5,s5,7692
                sscanf(buffer, "%d", &n);
9d00556c:	3c149d00 	lui	s4,0x9d00
9d005570:	26941e00 	addiu	s4,s4,7680
                sprintf(buffer,"%d\r\n", n + 1); // return the number + 1
9d005574:	3c139d00 	lui	s3,0x9d00
9d005578:	1000000f 	b	9d0055b8 <main+0xac>
9d00557c:	26731e04 	addiu	s3,s3,7684
                NU32_ReadUART3(buffer,BUF_SIZE);
9d005580:	240500c8 	li	a1,200
9d005584:	0f40111a 	jal	9d004468 <NU32_ReadUART3>
9d005588:	27a40010 	addiu	a0,sp,16
                sscanf(buffer, "%d", &n);
9d00558c:	27a600d8 	addiu	a2,sp,216
9d005590:	02802825 	move	a1,s4
9d005594:	0f401e5e 	jal	9d007978 <_dsscanf_cdnopuxX>
9d005598:	27a40010 	addiu	a0,sp,16
                sprintf(buffer,"%d\r\n", n + 1); // return the number + 1
9d00559c:	8fa600d8 	lw	a2,216(sp)
9d0055a0:	24c60001 	addiu	a2,a2,1
9d0055a4:	02602825 	move	a1,s3
9d0055a8:	0f401e54 	jal	9d007950 <_dsprintf_cdnopuxX>
9d0055ac:	27a40010 	addiu	a0,sp,16
                NU32_WriteUART3(buffer);
9d0055b0:	0f401131 	jal	9d0044c4 <NU32_WriteUART3>
9d0055b4:	27a40010 	addiu	a0,sp,16
        NU32_LED2 = 1; // clear the error LED
9d0055b8:	24160001 	li	s6,1
        switch (buffer[0]) {
9d0055bc:	2412006c 	li	s2,108
9d0055c0:	24110071 	li	s1,113
        NU32_ReadUART3(buffer,BUF_SIZE); // we expect the next character to be a menu command
9d0055c4:	240500c8 	li	a1,200
9d0055c8:	0f40111a 	jal	9d004468 <NU32_ReadUART3>
9d0055cc:	27a40010 	addiu	a0,sp,16
        NU32_LED2 = 1; // clear the error LED
9d0055d0:	92026160 	lbu	v0,24928(s0)
9d0055d4:	7ec20844 	ins	v0,s6,0x1,0x1
9d0055d8:	a2026160 	sb	v0,24928(s0)
        switch (buffer[0]) {
9d0055dc:	83a20010 	lb	v0,16(sp)
9d0055e0:	1052000a 	beq	v0,s2,9d00560c <main+0x100>
9d0055e4:	00000000 	nop
9d0055e8:	1051fff6 	beq	v0,s1,9d0055c4 <main+0xb8>
9d0055ec:	24030064 	li	v1,100
9d0055f0:	5043ffe3 	beql	v0,v1,9d005580 <main+0x74>
9d0055f4:	afa000d8 	sw	zero,216(sp)
                NU32_LED2 = 0;
                break;
            }
            default:
            {
                NU32_LED2 = 0; // turn on LED2 to indicate an error
9d0055f8:	92026160 	lbu	v0,24928(s0)
9d0055fc:	7c020844 	ins	v0,zero,0x1,0x1
9d005600:	a2026160 	sb	v0,24928(s0)
                break;
9d005604:	1000ffed 	b	9d0055bc <main+0xb0>
9d005608:	24160001 	li	s6,1
                NU32_WriteUART3("Turning on LED2...\r\n");
9d00560c:	0f401131 	jal	9d0044c4 <NU32_WriteUART3>
9d005610:	02a02025 	move	a0,s5
                NU32_LED2 = 0;
9d005614:	92026160 	lbu	v0,24928(s0)
9d005618:	7c020844 	ins	v0,zero,0x1,0x1
9d00561c:	a2026160 	sb	v0,24928(s0)
                break;
9d005620:	1000ffe6 	b	9d0055bc <main+0xb0>
9d005624:	24160001 	li	s6,1

Disassembly of section .text.realloc:

9d005628 <realloc>:
9d005628:	27bdffd8 	addiu	sp,sp,-40
9d00562c:	afbf0024 	sw	ra,36(sp)
9d005630:	afb40020 	sw	s4,32(sp)
9d005634:	afb3001c 	sw	s3,28(sp)
9d005638:	afb20018 	sw	s2,24(sp)
9d00563c:	afb10014 	sw	s1,20(sp)
9d005640:	afb00010 	sw	s0,16(sp)
9d005644:	1480000d 	bnez	a0,9d00567c <realloc+0x54>
9d005648:	afa5002c 	sw	a1,44(sp)
9d00564c:	0f400f2e 	jal	9d003cb8 <malloc>
9d005650:	00a02025 	move	a0,a1
9d005654:	00408825 	move	s1,v0
9d005658:	8fbf0024 	lw	ra,36(sp)
9d00565c:	02201025 	move	v0,s1
9d005660:	8fb40020 	lw	s4,32(sp)
9d005664:	8fb3001c 	lw	s3,28(sp)
9d005668:	8fb20018 	lw	s2,24(sp)
9d00566c:	8fb10014 	lw	s1,20(sp)
9d005670:	8fb00010 	lw	s0,16(sp)
9d005674:	03e00008 	jr	ra
9d005678:	27bd0028 	addiu	sp,sp,40
9d00567c:	00808025 	move	s0,a0
9d005680:	0f401c2b 	jal	9d0070ac <adjust_size>
9d005684:	27a4002c 	addiu	a0,sp,44
9d005688:	0440002b 	bltz	v0,9d005738 <realloc+0x110>
9d00568c:	2413fffe 	li	s3,-2
9d005690:	8e02fffc 	lw	v0,-4(s0)
9d005694:	2614fff8 	addiu	s4,s0,-8
9d005698:	00539024 	and	s2,v0,s3
9d00569c:	02928821 	addu	s1,s4,s2
9d0056a0:	8e230000 	lw	v1,0(s1)
9d0056a4:	10430003 	beq	v0,v1,9d0056b4 <realloc+0x8c>
9d0056a8:	8fa2002c 	lw	v0,44(sp)
9d0056ac:	a0000000 	sb	zero,0(zero)
9d0056b0:	00000034 	teq	zero,zero
9d0056b4:	0242102b 	sltu	v0,s2,v0
9d0056b8:	10400009 	beqz	v0,9d0056e0 <realloc+0xb8>
9d0056bc:	02401825 	move	v1,s2
9d0056c0:	0f401b50 	jal	9d006d40 <alloc_fwd>
9d0056c4:	02202025 	move	a0,s1
9d0056c8:	10400005 	beqz	v0,9d0056e0 <realloc+0xb8>
9d0056cc:	02401825 	move	v1,s2
9d0056d0:	8e220004 	lw	v0,4(s1)
9d0056d4:	02629824 	and	s3,s3,v0
9d0056d8:	02721821 	addu	v1,s3,s2
9d0056dc:	02338821 	addu	s1,s1,s3
9d0056e0:	8fa5002c 	lw	a1,44(sp)
9d0056e4:	34620001 	ori	v0,v1,0x1
9d0056e8:	ae02fffc 	sw	v0,-4(s0)
9d0056ec:	0065182b 	sltu	v1,v1,a1
9d0056f0:	14600005 	bnez	v1,9d005708 <realloc+0xe0>
9d0056f4:	ae220000 	sw	v0,0(s1)
9d0056f8:	0f401c41 	jal	9d007104 <trim>
9d0056fc:	02802025 	move	a0,s4
9d005700:	1000ffd5 	b	9d005658 <realloc+0x30>
9d005704:	02008825 	move	s1,s0
9d005708:	0f400f2e 	jal	9d003cb8 <malloc>
9d00570c:	24a4fff8 	addiu	a0,a1,-8
9d005710:	1040ffd1 	beqz	v0,9d005658 <realloc+0x30>
9d005714:	00408825 	move	s1,v0
9d005718:	2646fff8 	addiu	a2,s2,-8
9d00571c:	02002825 	move	a1,s0
9d005720:	0f401e33 	jal	9d0078cc <memcpy>
9d005724:	00402025 	move	a0,v0
9d005728:	0f401140 	jal	9d004500 <free>
9d00572c:	02002025 	move	a0,s0
9d005730:	1000ffca 	b	9d00565c <realloc+0x34>
9d005734:	8fbf0024 	lw	ra,36(sp)
9d005738:	1000ffc7 	b	9d005658 <realloc+0x30>
9d00573c:	00008825 	move	s1,zero

Disassembly of section .rodata:

9d005740 <table-0xc>:
9d005740:	04020100 	bltzl	zero,9d005b44 <__fmt_o+0xf0>
9d005744:	05060307 	0x5060307
9d005748:	00000000 	nop

9d00574c <table>:
9d00574c:	ffffffff ffffffff ffffffff ffffffff     ................
9d00575c:	ffffffff ffffffff ffffffff ffffffff     ................
9d00576c:	ffffffff ffffffff ffffffff ffffffff     ................
9d00577c:	020100ff 06050403 ff090807 ffffffff     ................
9d00578c:	0b0affff 0f0e0d0c 13121110 17161514     ................
9d00579c:	1b1a1918 1f1e1d1c 23222120 ffffffff     ........ !"#....
9d0057ac:	0b0affff 0f0e0d0c 13121110 17161514     ................
9d0057bc:	1b1a1918 1f1e1d1c 23222120 ffffffff     ........ !"#....
9d0057cc:	ffffffff ffffffff ffffffff ffffffff     ................
9d0057dc:	ffffffff ffffffff ffffffff ffffffff     ................
9d0057ec:	ffffffff ffffffff ffffffff ffffffff     ................
9d0057fc:	ffffffff ffffffff ffffffff ffffffff     ................
9d00580c:	ffffffff ffffffff ffffffff ffffffff     ................
9d00581c:	ffffffff ffffffff ffffffff ffffffff     ................
9d00582c:	ffffffff ffffffff ffffffff ffffffff     ................
9d00583c:	ffffffff ffffffff ffffffff ffffffff     ................
9d00584c:	000000ff                                ....

Disassembly of section .text.__pad:

9d005850 <__pad>:
9d005850:	27bdffc0 	addiu	sp,sp,-64
9d005854:	afb40030 	sw	s4,48(sp)
9d005858:	8fb40050 	lw	s4,80(sp)
9d00585c:	afb50034 	sw	s5,52(sp)
9d005860:	afb3002c 	sw	s3,44(sp)
9d005864:	32940001 	andi	s4,s4,0x1
9d005868:	afb20028 	sw	s2,40(sp)
9d00586c:	afb10024 	sw	s1,36(sp)
9d005870:	afb00020 	sw	s0,32(sp)
9d005874:	afbf003c 	sw	ra,60(sp)
9d005878:	afb60038 	sw	s6,56(sp)
9d00587c:	00809825 	move	s3,a0
9d005880:	00a0a825 	move	s5,a1
9d005884:	00c08825 	move	s1,a2
9d005888:	00e09025 	move	s2,a3
9d00588c:	16800024 	bnez	s4,9d005920 <__pad+0xd0>
9d005890:	00c7802a 	slt	s0,a2,a3
9d005894:	12000023 	beqz	s0,9d005924 <__pad+0xd4>
9d005898:	02203025 	move	a2,s1
9d00589c:	02518023 	subu	s0,s2,s1
9d0058a0:	2e060011 	sltiu	a2,s0,17
9d0058a4:	24020010 	li	v0,16
9d0058a8:	0206100b 	movn	v0,s0,a2
9d0058ac:	00403025 	move	a2,v0
9d0058b0:	24050020 	li	a1,32
9d0058b4:	27a40010 	addiu	a0,sp,16
9d0058b8:	0f401e7c 	jal	9d0079f0 <memset>
9d0058bc:	0200b025 	move	s6,s0
9d0058c0:	2a020010 	slti	v0,s0,16
9d0058c4:	1040001e 	beqz	v0,9d005940 <__pad+0xf0>
9d0058c8:	24060010 	li	a2,16
9d0058cc:	32c6000f 	andi	a2,s6,0xf
9d0058d0:	27a50010 	addiu	a1,sp,16
9d0058d4:	0f4019fb 	jal	9d0067ec <__out>
9d0058d8:	02602025 	move	a0,s3
9d0058dc:	16800006 	bnez	s4,9d0058f8 <__pad+0xa8>
9d0058e0:	8fbf003c 	lw	ra,60(sp)
9d0058e4:	02203025 	move	a2,s1
9d0058e8:	02a02825 	move	a1,s5
9d0058ec:	0f4019fb 	jal	9d0067ec <__out>
9d0058f0:	02602025 	move	a0,s3
9d0058f4:	8fbf003c 	lw	ra,60(sp)
9d0058f8:	02401025 	move	v0,s2
9d0058fc:	8fb60038 	lw	s6,56(sp)
9d005900:	8fb50034 	lw	s5,52(sp)
9d005904:	8fb40030 	lw	s4,48(sp)
9d005908:	8fb3002c 	lw	s3,44(sp)
9d00590c:	8fb20028 	lw	s2,40(sp)
9d005910:	8fb10024 	lw	s1,36(sp)
9d005914:	8fb00020 	lw	s0,32(sp)
9d005918:	03e00008 	jr	ra
9d00591c:	27bd0040 	addiu	sp,sp,64
9d005920:	02203025 	move	a2,s1
9d005924:	02a02825 	move	a1,s5
9d005928:	0f4019fb 	jal	9d0067ec <__out>
9d00592c:	02602025 	move	a0,s3
9d005930:	1600ffdb 	bnez	s0,9d0058a0 <__pad+0x50>
9d005934:	02518023 	subu	s0,s2,s1
9d005938:	1000ffee 	b	9d0058f4 <__pad+0xa4>
9d00593c:	02209025 	move	s2,s1
9d005940:	27a50010 	addiu	a1,sp,16
9d005944:	0f4019fb 	jal	9d0067ec <__out>
9d005948:	02602025 	move	a0,s3
9d00594c:	1000ffdc 	b	9d0058c0 <__pad+0x70>
9d005950:	2610fff0 	addiu	s0,s0,-16

Disassembly of section .text.dptofp:

9d005954 <__truncdfsf2>:
9d005954:	00053ac0 00045d42 00eb3825 000432c0     .:..B]..%8...2..
9d005964:	3c018000 00e13825 3c018000 00a14824     ...<%8.....<$H..
9d005974:	00054040 00084542 2508fc80 250bffff     @@..BE.....%...%
9d005984:	2d6100fe 10200012 00000000              ..a-.. .....

9d005990 <Hlab1>:
9d005990:	10c00002 	beqz	a2,9d00599c <i45>
9d005994:	00000000 	nop
9d005998:	34e70001 	ori	a3,a3,0x1

9d00599c <i45>:
9d00599c:	24e70080 	addiu	a3,a3,128
9d0059a0:	2ceb0080 	sltiu	t3,a3,128
9d0059a4:	010b4021 	addu	t0,t0,t3
9d0059a8:	00075a02 	srl	t3,a3,0x8
9d0059ac:	316b0001 	andi	t3,t3,0x1
9d0059b0:	00eb3823 	subu	a3,a3,t3
9d0059b4:	00073840 	sll	a3,a3,0x1
9d0059b8:	00073a42 	srl	a3,a3,0x9
9d0059bc:	00085dc0 	sll	t3,t0,0x17
9d0059c0:	00eb3825 	or	a3,a3,t3
9d0059c4:	00e91025 	or	v0,a3,t1

9d0059c8 <H999>:
9d0059c8:	03e00008 	jr	ra
9d0059cc:	00000000 	nop
9d0059d0:	00000000 	nop

9d0059d4 <Hspec>:
9d0059d4:	2401047f 	li	at,1151
9d0059d8:	15010007 	bne	t0,at,9d0059f8 <i46>
9d0059dc:	00000000 	nop
9d0059e0:	00075840 	sll	t3,a3,0x1
9d0059e4:	01665825 	or	t3,t3,a2
9d0059e8:	11600003 	beqz	t3,9d0059f8 <i46>
9d0059ec:	00000000 	nop
9d0059f0:	1000fff5 	b	9d0059c8 <H999>
9d0059f4:	3c02ffc0 	lui	v0,0xffc0

9d0059f8 <i46>:
9d0059f8:	290100ff 	slti	at,t0,255
9d0059fc:	14200004 	bnez	at,9d005a10 <i48>
9d005a00:	00000000 	nop
9d005a04:	3c017f80 	lui	at,0x7f80
9d005a08:	1000ffef 	b	9d0059c8 <H999>
9d005a0c:	01211025 	or	v0,t1,at

9d005a10 <i48>:
9d005a10:	240a0001 	li	t2,1
9d005a14:	01485023 	subu	t2,t2,t0
9d005a18:	2d410020 	sltiu	at,t2,32
9d005a1c:	14200003 	bnez	at,9d005a2c <i49>
9d005a20:	00000000 	nop
9d005a24:	1000ffe8 	b	9d0059c8 <H999>
9d005a28:	00091025 	or	v0,zero,t1

9d005a2c <i49>:
9d005a2c:	240c0020 	li	t4,32
9d005a30:	018a6023 	subu	t4,t4,t2
9d005a34:	01875804 	sllv	t3,a3,t4
9d005a38:	00cb3025 	or	a2,a2,t3
9d005a3c:	01473806 	srlv	a3,a3,t2
9d005a40:	24080000 	li	t0,0
9d005a44:	3c018000 	lui	at,0x8000
9d005a48:	1000ffd1 	b	9d005990 <Hlab1>
9d005a4c:	00e13825 	or	a3,a3,at
9d005a50:	00000000 	nop

Disassembly of section .text.__fmt_o:

9d005a54 <__fmt_o>:
9d005a54:	8ca20000 	lw	v0,0(a1)
9d005a58:	8ca30004 	lw	v1,4(a1)
9d005a5c:	27bdffc0 	addiu	sp,sp,-64
9d005a60:	afb30038 	sw	s3,56(sp)
9d005a64:	afb20034 	sw	s2,52(sp)
9d005a68:	afb10030 	sw	s1,48(sp)
9d005a6c:	afb0002c 	sw	s0,44(sp)
9d005a70:	afbf003c 	sw	ra,60(sp)
9d005a74:	00809025 	move	s2,a0
9d005a78:	00a08025 	move	s0,a1
9d005a7c:	8cb30008 	lw	s3,8(a1)
9d005a80:	afa20020 	sw	v0,32(sp)
9d005a84:	04600003 	bltz	v1,9d005a94 <__fmt_o+0x40>
9d005a88:	8cb1000c 	lw	s1,12(a1)
9d005a8c:	7c020844 	ins	v0,zero,0x1,0x1
9d005a90:	afa20020 	sw	v0,32(sp)
9d005a94:	27a20020 	addiu	v0,sp,32
9d005a98:	afa20018 	sw	v0,24(sp)
9d005a9c:	24020008 	li	v0,8
9d005aa0:	afa20014 	sw	v0,20(sp)
9d005aa4:	afb30010 	sw	s3,16(sp)
9d005aa8:	8cc70004 	lw	a3,4(a2)
9d005aac:	8cc60000 	lw	a2,0(a2)
9d005ab0:	0f401410 	jal	9d005040 <__cvt_u>
9d005ab4:	02002025 	move	a0,s0
9d005ab8:	8fa30020 	lw	v1,32(sp)
9d005abc:	30630010 	andi	v1,v1,0x10
9d005ac0:	10600006 	beqz	v1,9d005adc <__fmt_o+0x88>
9d005ac4:	8fa30020 	lw	v1,32(sp)
9d005ac8:	2442ffff 	addiu	v0,v0,-1
9d005acc:	02221821 	addu	v1,s1,v0
9d005ad0:	24040030 	li	a0,48
9d005ad4:	a0640000 	sb	a0,0(v1)
9d005ad8:	8fa30020 	lw	v1,32(sp)
9d005adc:	30630008 	andi	v1,v1,0x8
9d005ae0:	50600006 	beqzl	v1,9d005afc <__fmt_o+0xa8>
9d005ae4:	8e060010 	lw	a2,16(s0)
9d005ae8:	2442ffff 	addiu	v0,v0,-1
9d005aec:	02221821 	addu	v1,s1,v0
9d005af0:	24040020 	li	a0,32
9d005af4:	a0640000 	sb	a0,0(v1)
9d005af8:	8e060010 	lw	a2,16(s0)
9d005afc:	8fa30020 	lw	v1,32(sp)
9d005b00:	02603825 	move	a3,s3
9d005b04:	24c6ffff 	addiu	a2,a2,-1
9d005b08:	afa30010 	sw	v1,16(sp)
9d005b0c:	00c23023 	subu	a2,a2,v0
9d005b10:	02222821 	addu	a1,s1,v0
9d005b14:	0f401614 	jal	9d005850 <__pad>
9d005b18:	02402025 	move	a0,s2
9d005b1c:	8e430004 	lw	v1,4(s2)
9d005b20:	30630100 	andi	v1,v1,0x100
9d005b24:	10600004 	beqz	v1,9d005b38 <__fmt_o+0xe4>
9d005b28:	8fbf003c 	lw	ra,60(sp)
9d005b2c:	8e030004 	lw	v1,4(s0)
9d005b30:	0043202a 	slt	a0,v0,v1
9d005b34:	0064100b 	movn	v0,v1,a0
9d005b38:	8fb30038 	lw	s3,56(sp)
9d005b3c:	8fb20034 	lw	s2,52(sp)
9d005b40:	8fb10030 	lw	s1,48(sp)
9d005b44:	8fb0002c 	lw	s0,44(sp)
9d005b48:	03e00008 	jr	ra
9d005b4c:	27bd0040 	addiu	sp,sp,64

Disassembly of section .text.__pop_ptr:

9d005b50 <__pop_ptr>:
9d005b50:	24020084 	li	v0,132
9d005b54:	50a20022 	beql	a1,v0,9d005be0 <__pop_ptr+0x90>
9d005b58:	8ce20000 	lw	v0,0(a3)
9d005b5c:	28a20085 	slti	v0,a1,133
9d005b60:	10400011 	beqz	v0,9d005ba8 <__pop_ptr+0x58>
9d005b64:	24020090 	li	v0,144
9d005b68:	24020081 	li	v0,129
9d005b6c:	50a20008 	beql	a1,v0,9d005b90 <__pop_ptr+0x40>
9d005b70:	8ce20000 	lw	v0,0(a3)
9d005b74:	24020082 	li	v0,130
9d005b78:	50a20026 	beql	a1,v0,9d005c14 <__pop_ptr+0xc4>
9d005b7c:	8ce20000 	lw	v0,0(a3)
9d005b80:	24020080 	li	v0,128
9d005b84:	14a20010 	bne	a1,v0,9d005bc8 <__pop_ptr+0x78>
9d005b88:	00000000 	nop
9d005b8c:	8ce20000 	lw	v0,0(a3)
9d005b90:	24430004 	addiu	v1,v0,4
9d005b94:	ace30000 	sw	v1,0(a3)
9d005b98:	8c420000 	lw	v0,0(v0)
9d005b9c:	ac820000 	sw	v0,0(a0)
9d005ba0:	10000014 	b	9d005bf4 <__pop_ptr+0xa4>
9d005ba4:	ac460000 	sw	a2,0(v0)
9d005ba8:	50a2001a 	beql	a1,v0,9d005c14 <__pop_ptr+0xc4>
9d005bac:	8ce20000 	lw	v0,0(a3)
9d005bb0:	28a20091 	slti	v0,a1,145
9d005bb4:	10400006 	beqz	v0,9d005bd0 <__pop_ptr+0x80>
9d005bb8:	240200a0 	li	v0,160
9d005bbc:	24020088 	li	v0,136
9d005bc0:	50a2000e 	beql	a1,v0,9d005bfc <__pop_ptr+0xac>
9d005bc4:	8ce20000 	lw	v0,0(a3)
9d005bc8:	03e00008 	jr	ra
9d005bcc:	00001025 	move	v0,zero
9d005bd0:	50a2ffef 	beql	a1,v0,9d005b90 <__pop_ptr+0x40>
9d005bd4:	8ce20000 	lw	v0,0(a3)
9d005bd8:	1000ffea 	b	9d005b84 <__pop_ptr+0x34>
9d005bdc:	240200c0 	li	v0,192
9d005be0:	24430004 	addiu	v1,v0,4
9d005be4:	ace30000 	sw	v1,0(a3)
9d005be8:	8c420000 	lw	v0,0(v0)
9d005bec:	ac820000 	sw	v0,0(a0)
9d005bf0:	a4460000 	sh	a2,0(v0)
9d005bf4:	03e00008 	jr	ra
9d005bf8:	24020001 	li	v0,1
9d005bfc:	24430004 	addiu	v1,v0,4
9d005c00:	ace30000 	sw	v1,0(a3)
9d005c04:	8c420000 	lw	v0,0(v0)
9d005c08:	ac820000 	sw	v0,0(a0)
9d005c0c:	1000fff9 	b	9d005bf4 <__pop_ptr+0xa4>
9d005c10:	a0460000 	sb	a2,0(v0)
9d005c14:	24430004 	addiu	v1,v0,4
9d005c18:	ace30000 	sw	v1,0(a3)
9d005c1c:	8c420000 	lw	v0,0(v0)
9d005c20:	ac820000 	sw	v0,0(a0)
9d005c24:	ac460000 	sw	a2,0(v0)
9d005c28:	000637c3 	sra	a2,a2,0x1f
9d005c2c:	1000fff1 	b	9d005bf4 <__pop_ptr+0xa4>
9d005c30:	ac460004 	sw	a2,4(v0)

Disassembly of section .text.__stdio_seek_rw:

9d005c34 <__stdio_seek_rw>:
9d005c34:	27bdffd0 	addiu	sp,sp,-48
9d005c38:	afb20028 	sw	s2,40(sp)
9d005c3c:	8fb20040 	lw	s2,64(sp)
9d005c40:	24020001 	li	v0,1
9d005c44:	afb10024 	sw	s1,36(sp)
9d005c48:	afb00020 	sw	s0,32(sp)
9d005c4c:	afbf002c 	sw	ra,44(sp)
9d005c50:	00808025 	move	s0,a0
9d005c54:	1642000a 	bne	s2,v0,9d005c80 <__stdio_seek_rw+0x4c>
9d005c58:	00c08825 	move	s1,a2
9d005c5c:	8c83003c 	lw	v1,60(a0)
9d005c60:	8c820040 	lw	v0,64(a0)
9d005c64:	00431023 	subu	v0,v0,v1
9d005c68:	000227c3 	sra	a0,v0,0x1f
9d005c6c:	00c21023 	subu	v0,a2,v0
9d005c70:	00c2182b 	sltu	v1,a2,v0
9d005c74:	00e43823 	subu	a3,a3,a0
9d005c78:	00408825 	move	s1,v0
9d005c7c:	00e33823 	subu	a3,a3,v1
9d005c80:	8e020004 	lw	v0,4(s0)
9d005c84:	30420020 	andi	v0,v0,0x20
9d005c88:	5040000a 	beqzl	v0,9d005cb4 <__stdio_seek_rw+0x80>
9d005c8c:	afb20010 	sw	s2,16(sp)
9d005c90:	8e020014 	lw	v0,20(s0)
9d005c94:	8e030018 	lw	v1,24(s0)
9d005c98:	0062102b 	sltu	v0,v1,v0
9d005c9c:	5440000e 	bnezl	v0,9d005cd8 <__stdio_seek_rw+0xa4>
9d005ca0:	8e02002c 	lw	v0,44(s0)
9d005ca4:	ae000028 	sw	zero,40(s0)
9d005ca8:	ae000018 	sw	zero,24(s0)
9d005cac:	ae000014 	sw	zero,20(s0)
9d005cb0:	afb20010 	sw	s2,16(sp)
9d005cb4:	02203025 	move	a2,s1
9d005cb8:	0f401c15 	jal	9d007054 <__stdio_seek_unbuffered>
9d005cbc:	02002025 	move	a0,s0
9d005cc0:	0460000d 	bltz	v1,9d005cf8 <__stdio_seek_rw+0xc4>
9d005cc4:	00001025 	move	v0,zero
9d005cc8:	ae000040 	sw	zero,64(s0)
9d005ccc:	ae00003c 	sw	zero,60(s0)
9d005cd0:	1000000b 	b	9d005d00 <__stdio_seek_rw+0xcc>
9d005cd4:	00001825 	move	v1,zero
9d005cd8:	00003025 	move	a2,zero
9d005cdc:	00002825 	move	a1,zero
9d005ce0:	02002025 	move	a0,s0
9d005ce4:	0040f809 	jalr	v0
9d005ce8:	afa70018 	sw	a3,24(sp)
9d005cec:	8e020014 	lw	v0,20(s0)
9d005cf0:	1440ffec 	bnez	v0,9d005ca4 <__stdio_seek_rw+0x70>
9d005cf4:	8fa70018 	lw	a3,24(sp)
9d005cf8:	2402ffff 	li	v0,-1
9d005cfc:	2403ffff 	li	v1,-1
9d005d00:	8fbf002c 	lw	ra,44(sp)
9d005d04:	8fb20028 	lw	s2,40(sp)
9d005d08:	8fb10024 	lw	s1,36(sp)
9d005d0c:	8fb00020 	lw	s0,32(sp)
9d005d10:	03e00008 	jr	ra
9d005d14:	27bd0030 	addiu	sp,sp,48

Disassembly of section .text.general_exception:

9d005d18 <_general_exception_context>:
9d005d18:	27bdffa8 	addiu	sp,sp,-88
9d005d1c:	afa10004 	sw	at,4(sp)
9d005d20:	afa20008 	sw	v0,8(sp)
9d005d24:	afa3000c 	sw	v1,12(sp)
9d005d28:	afa40010 	sw	a0,16(sp)
9d005d2c:	afa50014 	sw	a1,20(sp)
9d005d30:	afa60018 	sw	a2,24(sp)
9d005d34:	afa7001c 	sw	a3,28(sp)
9d005d38:	afa80020 	sw	t0,32(sp)
9d005d3c:	afa90024 	sw	t1,36(sp)
9d005d40:	afaa0028 	sw	t2,40(sp)
9d005d44:	afab002c 	sw	t3,44(sp)
9d005d48:	afac0030 	sw	t4,48(sp)
9d005d4c:	afad0034 	sw	t5,52(sp)
9d005d50:	afae0038 	sw	t6,56(sp)
9d005d54:	afaf003c 	sw	t7,60(sp)
9d005d58:	afb80040 	sw	t8,64(sp)
9d005d5c:	afb90044 	sw	t9,68(sp)
9d005d60:	afbf0048 	sw	ra,72(sp)
9d005d64:	00004012 	mflo	t0
9d005d68:	afa8004c 	sw	t0,76(sp)
9d005d6c:	00004010 	mfhi	t0
9d005d70:	afa80050 	sw	t0,80(sp)
9d005d74:	3c1a9d00 	lui	k0,0x9d00
9d005d78:	275a7420 	addiu	k0,k0,29728
9d005d7c:	00000000 	nop
9d005d80:	40046800 	mfc0	a0,c0_cause
9d005d84:	40056000 	mfc0	a1,c0_status
9d005d88:	0340f809 	jalr	k0
9d005d8c:	00000000 	nop
9d005d90:	8fa80050 	lw	t0,80(sp)
9d005d94:	01000011 	mthi	t0
9d005d98:	8fa8004c 	lw	t0,76(sp)
9d005d9c:	01000013 	mtlo	t0
9d005da0:	8fa10004 	lw	at,4(sp)
9d005da4:	8fa20008 	lw	v0,8(sp)
9d005da8:	8fa3000c 	lw	v1,12(sp)
9d005dac:	8fa40010 	lw	a0,16(sp)
9d005db0:	8fa50014 	lw	a1,20(sp)
9d005db4:	8fa60018 	lw	a2,24(sp)
9d005db8:	8fa7001c 	lw	a3,28(sp)
9d005dbc:	8fa80020 	lw	t0,32(sp)
9d005dc0:	8fa90024 	lw	t1,36(sp)
9d005dc4:	8faa0028 	lw	t2,40(sp)
9d005dc8:	8fab002c 	lw	t3,44(sp)
9d005dcc:	8fac0030 	lw	t4,48(sp)
9d005dd0:	8fad0034 	lw	t5,52(sp)
9d005dd4:	8fae0038 	lw	t6,56(sp)
9d005dd8:	8faf003c 	lw	t7,60(sp)
9d005ddc:	8fb80040 	lw	t8,64(sp)
9d005de0:	8fb90044 	lw	t9,68(sp)
9d005de4:	8fbf0048 	lw	ra,72(sp)
9d005de8:	27bd0058 	addiu	sp,sp,88
9d005dec:	000000c0 	ehb
9d005df0:	42000018 	eret

Disassembly of section .text.__stdio_read:

9d005df4 <__stdio_read>:
9d005df4:	8c83000c 	lw	v1,12(a0)
9d005df8:	27bdffd0 	addiu	sp,sp,-48
9d005dfc:	afb00020 	sw	s0,32(sp)
9d005e00:	0003102b 	sltu	v0,zero,v1
9d005e04:	00c21023 	subu	v0,a2,v0
9d005e08:	00808025 	move	s0,a0
9d005e0c:	afa20014 	sw	v0,20(sp)
9d005e10:	8c820008 	lw	v0,8(a0)
9d005e14:	8c840000 	lw	a0,0(a0)
9d005e18:	afb20028 	sw	s2,40(sp)
9d005e1c:	afb10024 	sw	s1,36(sp)
9d005e20:	00a09025 	move	s2,a1
9d005e24:	00c08825 	move	s1,a2
9d005e28:	afa50010 	sw	a1,16(sp)
9d005e2c:	24060002 	li	a2,2
9d005e30:	27a50010 	addiu	a1,sp,16
9d005e34:	afbf002c 	sw	ra,44(sp)
9d005e38:	afa20018 	sw	v0,24(sp)
9d005e3c:	0f401aa2 	jal	9d006a88 <readv>
9d005e40:	afa3001c 	sw	v1,28(sp)
9d005e44:	1c400008 	bgtz	v0,9d005e68 <__stdio_read+0x74>
9d005e48:	8fa40014 	lw	a0,20(sp)
9d005e4c:	30430018 	andi	v1,v0,0x18
9d005e50:	38640008 	xori	a0,v1,0x8
9d005e54:	8e030004 	lw	v1,4(s0)
9d005e58:	00641825 	or	v1,v1,a0
9d005e5c:	ae030004 	sw	v1,4(s0)
9d005e60:	10000010 	b	9d005ea4 <__stdio_read+0xb0>
9d005e64:	00408825 	move	s1,v0
9d005e68:	0082182b 	sltu	v1,a0,v0
9d005e6c:	5060000d 	beqzl	v1,9d005ea4 <__stdio_read+0xb0>
9d005e70:	00408825 	move	s1,v0
9d005e74:	8e030008 	lw	v1,8(s0)
9d005e78:	00441023 	subu	v0,v0,a0
9d005e7c:	00621021 	addu	v0,v1,v0
9d005e80:	ae020040 	sw	v0,64(s0)
9d005e84:	8e02000c 	lw	v0,12(s0)
9d005e88:	10400006 	beqz	v0,9d005ea4 <__stdio_read+0xb0>
9d005e8c:	ae03003c 	sw	v1,60(s0)
9d005e90:	24620001 	addiu	v0,v1,1
9d005e94:	ae02003c 	sw	v0,60(s0)
9d005e98:	90620000 	lbu	v0,0(v1)
9d005e9c:	02519021 	addu	s2,s2,s1
9d005ea0:	a242ffff 	sb	v0,-1(s2)
9d005ea4:	8fbf002c 	lw	ra,44(sp)
9d005ea8:	02201025 	move	v0,s1
9d005eac:	8fb20028 	lw	s2,40(sp)
9d005eb0:	8fb10024 	lw	s1,36(sp)
9d005eb4:	8fb00020 	lw	s0,32(sp)
9d005eb8:	03e00008 	jr	ra
9d005ebc:	27bd0030 	addiu	sp,sp,48

Disassembly of section .text.__stdio_close_rw:

9d005ec0 <__stdio_close_rw>:
9d005ec0:	54800003 	bnezl	a0,9d005ed0 <__stdio_close_rw+0x10>
9d005ec4:	8c820004 	lw	v0,4(a0)
9d005ec8:	03e00008 	jr	ra
9d005ecc:	00001025 	move	v0,zero
9d005ed0:	27bdffd8 	addiu	sp,sp,-40
9d005ed4:	afb10020 	sw	s1,32(sp)
9d005ed8:	30420020 	andi	v0,v0,0x20
9d005edc:	afb0001c 	sw	s0,28(sp)
9d005ee0:	afbf0024 	sw	ra,36(sp)
9d005ee4:	00808025 	move	s0,a0
9d005ee8:	10400009 	beqz	v0,9d005f10 <__stdio_close_rw+0x50>
9d005eec:	00a08825 	move	s1,a1
9d005ef0:	8c820014 	lw	v0,20(a0)
9d005ef4:	8c830018 	lw	v1,24(a0)
9d005ef8:	0062102b 	sltu	v0,v1,v0
9d005efc:	54400017 	bnezl	v0,9d005f5c <__stdio_close_rw+0x9c>
9d005f00:	8c82002c 	lw	v0,44(a0)
9d005f04:	ae000028 	sw	zero,40(s0)
9d005f08:	ae000018 	sw	zero,24(s0)
9d005f0c:	ae000014 	sw	zero,20(s0)
9d005f10:	8e06003c 	lw	a2,60(s0)
9d005f14:	8e020040 	lw	v0,64(s0)
9d005f18:	00c2182b 	sltu	v1,a2,v0
9d005f1c:	50600008 	beqzl	v1,9d005f40 <__stdio_close_rw+0x80>
9d005f20:	ae000040 	sw	zero,64(s0)
9d005f24:	00c23023 	subu	a2,a2,v0
9d005f28:	24020001 	li	v0,1
9d005f2c:	afa20010 	sw	v0,16(sp)
9d005f30:	8e040000 	lw	a0,0(s0)
9d005f34:	0f401f37 	jal	9d007cdc <lseek>
9d005f38:	00063fc3 	sra	a3,a2,0x1f
9d005f3c:	ae000040 	sw	zero,64(s0)
9d005f40:	ae00003c 	sw	zero,60(s0)
9d005f44:	1220000b 	beqz	s1,9d005f74 <__stdio_close_rw+0xb4>
9d005f48:	00001025 	move	v0,zero
9d005f4c:	0f401f39 	jal	9d007ce4 <close>
9d005f50:	8e040000 	lw	a0,0(s0)
9d005f54:	10000008 	b	9d005f78 <__stdio_close_rw+0xb8>
9d005f58:	8fbf0024 	lw	ra,36(sp)
9d005f5c:	00003025 	move	a2,zero
9d005f60:	0040f809 	jalr	v0
9d005f64:	00002825 	move	a1,zero
9d005f68:	8e030014 	lw	v1,20(s0)
9d005f6c:	1460ffe5 	bnez	v1,9d005f04 <__stdio_close_rw+0x44>
9d005f70:	2402ffff 	li	v0,-1
9d005f74:	8fbf0024 	lw	ra,36(sp)
9d005f78:	8fb10020 	lw	s1,32(sp)
9d005f7c:	8fb0001c 	lw	s0,28(sp)
9d005f80:	03e00008 	jr	ra
9d005f84:	27bd0028 	addiu	sp,sp,40

Disassembly of section .text.__fmt_u:

9d005f88 <__fmt_u>:
9d005f88:	8ca20000 	lw	v0,0(a1)
9d005f8c:	8ca30004 	lw	v1,4(a1)
9d005f90:	27bdffc0 	addiu	sp,sp,-64
9d005f94:	afb30038 	sw	s3,56(sp)
9d005f98:	afb20034 	sw	s2,52(sp)
9d005f9c:	afb10030 	sw	s1,48(sp)
9d005fa0:	afb0002c 	sw	s0,44(sp)
9d005fa4:	afbf003c 	sw	ra,60(sp)
9d005fa8:	00808825 	move	s1,a0
9d005fac:	00a08025 	move	s0,a1
9d005fb0:	8cb20008 	lw	s2,8(a1)
9d005fb4:	afa20020 	sw	v0,32(sp)
9d005fb8:	04600003 	bltz	v1,9d005fc8 <__fmt_u+0x40>
9d005fbc:	8cb3000c 	lw	s3,12(a1)
9d005fc0:	7c020844 	ins	v0,zero,0x1,0x1
9d005fc4:	afa20020 	sw	v0,32(sp)
9d005fc8:	27a20020 	addiu	v0,sp,32
9d005fcc:	afa20018 	sw	v0,24(sp)
9d005fd0:	2402000a 	li	v0,10
9d005fd4:	afa20014 	sw	v0,20(sp)
9d005fd8:	afb20010 	sw	s2,16(sp)
9d005fdc:	8cc70004 	lw	a3,4(a2)
9d005fe0:	8cc60000 	lw	a2,0(a2)
9d005fe4:	0f401410 	jal	9d005040 <__cvt_u>
9d005fe8:	02002025 	move	a0,s0
9d005fec:	8e060010 	lw	a2,16(s0)
9d005ff0:	8fa30020 	lw	v1,32(sp)
9d005ff4:	02403825 	move	a3,s2
9d005ff8:	24c6ffff 	addiu	a2,a2,-1
9d005ffc:	afa30010 	sw	v1,16(sp)
9d006000:	00c23023 	subu	a2,a2,v0
9d006004:	02622821 	addu	a1,s3,v0
9d006008:	0f401614 	jal	9d005850 <__pad>
9d00600c:	02202025 	move	a0,s1
9d006010:	8e230004 	lw	v1,4(s1)
9d006014:	30630100 	andi	v1,v1,0x100
9d006018:	10600004 	beqz	v1,9d00602c <__fmt_u+0xa4>
9d00601c:	8fbf003c 	lw	ra,60(sp)
9d006020:	8e030004 	lw	v1,4(s0)
9d006024:	0043202a 	slt	a0,v0,v1
9d006028:	0064100b 	movn	v0,v1,a0
9d00602c:	8fb30038 	lw	s3,56(sp)
9d006030:	8fb20034 	lw	s2,52(sp)
9d006034:	8fb10030 	lw	s1,48(sp)
9d006038:	8fb0002c 	lw	s0,44(sp)
9d00603c:	03e00008 	jr	ra
9d006040:	27bd0040 	addiu	sp,sp,64

Disassembly of section .text.strtox:

9d006044 <strtox>:
9d006044:	27bdff70 	addiu	sp,sp,-144
9d006048:	afb20088 	sw	s2,136(sp)
9d00604c:	afb10084 	sw	s1,132(sp)
9d006050:	afb00080 	sw	s0,128(sp)
9d006054:	afbf008c 	sw	ra,140(sp)
9d006058:	00808025 	move	s0,a0
9d00605c:	00a08825 	move	s1,a1
9d006060:	00c09025 	move	s2,a2
9d006064:	afa0001c 	sw	zero,28(sp)
9d006068:	afa40054 	sw	a0,84(sp)
9d00606c:	afa40020 	sw	a0,32(sp)
9d006070:	04800004 	bltz	a0,9d006084 <strtox+0x40>
9d006074:	2402ffff 	li	v0,-1
9d006078:	3c027fff 	lui	v0,0x7fff
9d00607c:	3442ffff 	ori	v0,v0,0xffff
9d006080:	00821021 	addu	v0,a0,v0
9d006084:	00003025 	move	a2,zero
9d006088:	00003825 	move	a3,zero
9d00608c:	27a40018 	addiu	a0,sp,24
9d006090:	0f401cbd 	jal	9d0072f4 <__shlim>
9d006094:	afa20058 	sw	v0,88(sp)
9d006098:	8fa200a0 	lw	v0,160(sp)
9d00609c:	8fa300a4 	lw	v1,164(sp)
9d0060a0:	02402825 	move	a1,s2
9d0060a4:	27a40018 	addiu	a0,sp,24
9d0060a8:	afa20010 	sw	v0,16(sp)
9d0060ac:	afa30014 	sw	v1,20(sp)
9d0060b0:	0f400964 	jal	9d002590 <__intscan>
9d0060b4:	24060001 	li	a2,1
9d0060b8:	00402025 	move	a0,v0
9d0060bc:	12200008 	beqz	s1,9d0060e0 <strtox+0x9c>
9d0060c0:	00602825 	move	a1,v1
9d0060c4:	8fa20058 	lw	v0,88(sp)
9d0060c8:	8fa30054 	lw	v1,84(sp)
9d0060cc:	00621823 	subu	v1,v1,v0
9d0060d0:	8fa20070 	lw	v0,112(sp)
9d0060d4:	00621821 	addu	v1,v1,v0
9d0060d8:	02038021 	addu	s0,s0,v1
9d0060dc:	ae300000 	sw	s0,0(s1)
9d0060e0:	8fbf008c 	lw	ra,140(sp)
9d0060e4:	00801025 	move	v0,a0
9d0060e8:	00a01825 	move	v1,a1
9d0060ec:	8fb20088 	lw	s2,136(sp)
9d0060f0:	8fb10084 	lw	s1,132(sp)
9d0060f4:	8fb00080 	lw	s0,128(sp)
9d0060f8:	03e00008 	jr	ra
9d0060fc:	27bd0090 	addiu	sp,sp,144

Disassembly of section .text.__skipws:

9d006100 <__skipws>:
9d006100:	27bdffd8 	addiu	sp,sp,-40
9d006104:	afb30020 	sw	s3,32(sp)
9d006108:	afb2001c 	sw	s2,28(sp)
9d00610c:	afb10018 	sw	s1,24(sp)
9d006110:	afb00014 	sw	s0,20(sp)
9d006114:	afbf0024 	sw	ra,36(sp)
9d006118:	00808025 	move	s0,a0
9d00611c:	00008825 	move	s1,zero
9d006120:	2412ffff 	li	s2,-1
9d006124:	24130020 	li	s3,32
9d006128:	8e02003c 	lw	v0,60(s0)
9d00612c:	8e03004c 	lw	v1,76(s0)
9d006130:	0043182b 	sltu	v1,v0,v1
9d006134:	10600018 	beqz	v1,9d006198 <__skipws+0x98>
9d006138:	24430001 	addiu	v1,v0,1
9d00613c:	ae03003c 	sw	v1,60(s0)
9d006140:	90420000 	lbu	v0,0(v0)
9d006144:	10530012 	beq	v0,s3,9d006190 <__skipws+0x90>
9d006148:	2442fff7 	addiu	v0,v0,-9
9d00614c:	2c420005 	sltiu	v0,v0,5
9d006150:	5440fff5 	bnezl	v0,9d006128 <__skipws+0x28>
9d006154:	26310001 	addiu	s1,s1,1
9d006158:	8e02004c 	lw	v0,76(s0)
9d00615c:	10400005 	beqz	v0,9d006174 <__skipws+0x74>
9d006160:	8fbf0024 	lw	ra,36(sp)
9d006164:	8e02003c 	lw	v0,60(s0)
9d006168:	2442ffff 	addiu	v0,v0,-1
9d00616c:	ae02003c 	sw	v0,60(s0)
9d006170:	8fbf0024 	lw	ra,36(sp)
9d006174:	02201025 	move	v0,s1
9d006178:	8fb30020 	lw	s3,32(sp)
9d00617c:	8fb2001c 	lw	s2,28(sp)
9d006180:	8fb10018 	lw	s1,24(sp)
9d006184:	8fb00014 	lw	s0,20(sp)
9d006188:	03e00008 	jr	ra
9d00618c:	27bd0028 	addiu	sp,sp,40
9d006190:	1000ffe5 	b	9d006128 <__skipws+0x28>
9d006194:	26310001 	addiu	s1,s1,1
9d006198:	0f4014fb 	jal	9d0053ec <__shgetc>
9d00619c:	02002025 	move	a0,s0
9d0061a0:	1452ffe8 	bne	v0,s2,9d006144 <__skipws+0x44>
9d0061a4:	8fbf0024 	lw	ra,36(sp)
9d0061a8:	1000fff3 	b	9d006178 <__skipws+0x78>
9d0061ac:	02201025 	move	v0,s1

Disassembly of section .text._sbrk:

9d0061b0 <_sbrk>:
9d0061b0:	27bdffe0 	addiu	sp,sp,-32
9d0061b4:	afb00014 	sw	s0,20(sp)
9d0061b8:	3c10a000 	lui	s0,0xa000
9d0061bc:	8e020350 	lw	v0,848(s0)
9d0061c0:	afb10018 	sw	s1,24(sp)
9d0061c4:	afbf001c 	sw	ra,28(sp)
9d0061c8:	1440000f 	bnez	v0,9d006208 <_sbrk+0x58>
9d0061cc:	00808825 	move	s1,a0
9d0061d0:	0f401367 	jal	9d004d9c <_sbrk_init>
9d0061d4:	00000000 	nop
9d0061d8:	8e020350 	lw	v0,848(s0)
9d0061dc:	1440000b 	bnez	v0,9d00620c <_sbrk+0x5c>
9d0061e0:	00000000 	nop
9d0061e4:	3c02a000 	lui	v0,0xa000
9d0061e8:	2403000c 	li	v1,12
9d0061ec:	ac43035c 	sw	v1,860(v0)
9d0061f0:	2402ffff 	li	v0,-1
9d0061f4:	8fbf001c 	lw	ra,28(sp)
9d0061f8:	8fb10018 	lw	s1,24(sp)
9d0061fc:	8fb00014 	lw	s0,20(sp)
9d006200:	03e00008 	jr	ra
9d006204:	27bd0020 	addiu	sp,sp,32
9d006208:	8e020350 	lw	v0,848(s0)
9d00620c:	1a20000a 	blez	s1,9d006238 <_sbrk+0x88>
9d006210:	00511821 	addu	v1,v0,s1
9d006214:	0062202b 	sltu	a0,v1,v0
9d006218:	1480fff2 	bnez	a0,9d0061e4 <_sbrk+0x34>
9d00621c:	3c04a000 	lui	a0,0xa000
9d006220:	8c840354 	lw	a0,852(a0)
9d006224:	0083202b 	sltu	a0,a0,v1
9d006228:	5480ffef 	bnezl	a0,9d0061e8 <_sbrk+0x38>
9d00622c:	3c02a000 	lui	v0,0xa000
9d006230:	1000fff0 	b	9d0061f4 <_sbrk+0x44>
9d006234:	ae030350 	sw	v1,848(s0)
9d006238:	0043202b 	sltu	a0,v0,v1
9d00623c:	14800005 	bnez	a0,9d006254 <_sbrk+0xa4>
9d006240:	3c04a000 	lui	a0,0xa000
9d006244:	8c840358 	lw	a0,856(a0)
9d006248:	0064202b 	sltu	a0,v1,a0
9d00624c:	5080ffe9 	beqzl	a0,9d0061f4 <_sbrk+0x44>
9d006250:	ae030350 	sw	v1,848(s0)
9d006254:	3c02a000 	lui	v0,0xa000
9d006258:	1000ffe4 	b	9d0061ec <_sbrk+0x3c>
9d00625c:	24030016 	li	v1,22

Disassembly of section .text.unbin:

9d006260 <unbin>:
9d006260:	27bdffe0 	addiu	sp,sp,-32
9d006264:	afb20018 	sw	s2,24(sp)
9d006268:	afb10014 	sw	s1,20(sp)
9d00626c:	8c92000c 	lw	s2,12(a0)
9d006270:	8c910008 	lw	s1,8(a0)
9d006274:	afb00010 	sw	s0,16(sp)
9d006278:	afbf001c 	sw	ra,28(sp)
9d00627c:	16510013 	bne	s2,s1,9d0062cc <unbin+0x6c>
9d006280:	00808025 	move	s0,a0
9d006284:	00a03025 	move	a2,a1
9d006288:	24040001 	li	a0,1
9d00628c:	0f401db7 	jal	9d0076dc <__ashldi3>
9d006290:	00002825 	move	a1,zero
9d006294:	00031827 	nor	v1,zero,v1
9d006298:	10400005 	beqz	v0,9d0062b0 <unbin+0x50>
9d00629c:	00022827 	nor	a1,zero,v0
9d0062a0:	3c04a000 	lui	a0,0xa000
9d0062a4:	8c820010 	lw	v0,16(a0)
9d0062a8:	00451024 	and	v0,v0,a1
9d0062ac:	ac820010 	sw	v0,16(a0)
9d0062b0:	2402ffff 	li	v0,-1
9d0062b4:	10620005 	beq	v1,v0,9d0062cc <unbin+0x6c>
9d0062b8:	3c02a000 	lui	v0,0xa000
9d0062bc:	24420010 	addiu	v0,v0,16
9d0062c0:	8c440004 	lw	a0,4(v0)
9d0062c4:	00641824 	and	v1,v1,a0
9d0062c8:	ac430004 	sw	v1,4(v0)
9d0062cc:	8e020004 	lw	v0,4(s0)
9d0062d0:	ae510008 	sw	s1,8(s2)
9d0062d4:	ae32000c 	sw	s2,12(s1)
9d0062d8:	34430001 	ori	v1,v0,0x1
9d0062dc:	7c020004 	ins	v0,zero,0x0,0x1
9d0062e0:	ae030004 	sw	v1,4(s0)
9d0062e4:	02028021 	addu	s0,s0,v0
9d0062e8:	8e020000 	lw	v0,0(s0)
9d0062ec:	8fbf001c 	lw	ra,28(sp)
9d0062f0:	8fb20018 	lw	s2,24(sp)
9d0062f4:	34420001 	ori	v0,v0,0x1
9d0062f8:	ae020000 	sw	v0,0(s0)
9d0062fc:	8fb10014 	lw	s1,20(sp)
9d006300:	8fb00010 	lw	s0,16(sp)
9d006304:	03e00008 	jr	ra
9d006308:	27bd0020 	addiu	sp,sp,32

Disassembly of section .text.__fmt_s:

9d00630c <__fmt_s>:
9d00630c:	3c036c75 	lui	v1,0x6c75
9d006310:	27bdffc8 	addiu	sp,sp,-56
9d006314:	24636e28 	addiu	v1,v1,28200
9d006318:	afa30018 	sw	v1,24(sp)
9d00631c:	2403296c 	li	v1,10604
9d006320:	afb40030 	sw	s4,48(sp)
9d006324:	afb3002c 	sw	s3,44(sp)
9d006328:	afb20028 	sw	s2,40(sp)
9d00632c:	afb10024 	sw	s1,36(sp)
9d006330:	afb00020 	sw	s0,32(sp)
9d006334:	afbf0034 	sw	ra,52(sp)
9d006338:	00809025 	move	s2,a0
9d00633c:	00e01025 	move	v0,a3
9d006340:	a7a3001c 	sh	v1,28(sp)
9d006344:	a3a0001e 	sb	zero,30(sp)
9d006348:	8cb10004 	lw	s1,4(a1)
9d00634c:	8cb30008 	lw	s3,8(a1)
9d006350:	8cb40000 	lw	s4,0(a1)
9d006354:	10c00002 	beqz	a2,9d006360 <__fmt_s+0x54>
9d006358:	27b00018 	addiu	s0,sp,24
9d00635c:	00c08025 	move	s0,a2
9d006360:	14400003 	bnez	v0,9d006370 <__fmt_s+0x64>
9d006364:	00000000 	nop
9d006368:	0f401f0c 	jal	9d007c30 <strlen>
9d00636c:	02002025 	move	a0,s0
9d006370:	06200002 	bltz	s1,9d00637c <__fmt_s+0x70>
9d006374:	0222182b 	sltu	v1,s1,v0
9d006378:	0223100b 	movn	v0,s1,v1
9d00637c:	afb40010 	sw	s4,16(sp)
9d006380:	02603825 	move	a3,s3
9d006384:	02002825 	move	a1,s0
9d006388:	02402025 	move	a0,s2
9d00638c:	0f401614 	jal	9d005850 <__pad>
9d006390:	00403025 	move	a2,v0
9d006394:	8fbf0034 	lw	ra,52(sp)
9d006398:	8fb40030 	lw	s4,48(sp)
9d00639c:	8fb3002c 	lw	s3,44(sp)
9d0063a0:	8fb20028 	lw	s2,40(sp)
9d0063a4:	8fb10024 	lw	s1,36(sp)
9d0063a8:	8fb00020 	lw	s0,32(sp)
9d0063ac:	03e00008 	jr	ra
9d0063b0:	27bd0038 	addiu	sp,sp,56

Disassembly of section .text.__push_float:

9d0063b4 <__push_float>:
9d0063b4:	24020081 	li	v0,129
9d0063b8:	50a20012 	beql	a1,v0,9d006404 <__push_float+0x50>
9d0063bc:	8cc20000 	lw	v0,0(a2)
9d0063c0:	24020083 	li	v0,131
9d0063c4:	50a20006 	beql	a1,v0,9d0063e0 <__push_float+0x2c>
9d0063c8:	8cc20000 	lw	v0,0(a2)
9d0063cc:	24020080 	li	v0,128
9d0063d0:	10a20012 	beq	a1,v0,9d00641c <__push_float+0x68>
9d0063d4:	00001025 	move	v0,zero
9d0063d8:	03e00008 	jr	ra
9d0063dc:	00000000 	nop
9d0063e0:	24430004 	addiu	v1,v0,4
9d0063e4:	acc30000 	sw	v1,0(a2)
9d0063e8:	8c850004 	lw	a1,4(a0)
9d0063ec:	8c420000 	lw	v0,0(v0)
9d0063f0:	8c840000 	lw	a0,0(a0)
9d0063f4:	ac440000 	sw	a0,0(v0)
9d0063f8:	ac450004 	sw	a1,4(v0)
9d0063fc:	03e00008 	jr	ra
9d006400:	24020001 	li	v0,1
9d006404:	24430004 	addiu	v1,v0,4
9d006408:	acc30000 	sw	v1,0(a2)
9d00640c:	8c850004 	lw	a1,4(a0)
9d006410:	8c420000 	lw	v0,0(v0)
9d006414:	1000fff7 	b	9d0063f4 <__push_float+0x40>
9d006418:	8c840000 	lw	a0,0(a0)
9d00641c:	8cc20000 	lw	v0,0(a2)
9d006420:	8c850004 	lw	a1,4(a0)
9d006424:	8c840000 	lw	a0,0(a0)
9d006428:	24430004 	addiu	v1,v0,4
9d00642c:	27bdffe8 	addiu	sp,sp,-24
9d006430:	acc30000 	sw	v1,0(a2)
9d006434:	afb00010 	sw	s0,16(sp)
9d006438:	afbf0014 	sw	ra,20(sp)
9d00643c:	0f401655 	jal	9d005954 <__truncdfsf2>
9d006440:	8c500000 	lw	s0,0(v0)
9d006444:	8fbf0014 	lw	ra,20(sp)
9d006448:	ae020000 	sw	v0,0(s0)
9d00644c:	24020001 	li	v0,1
9d006450:	8fb00010 	lw	s0,16(sp)
9d006454:	03e00008 	jr	ra
9d006458:	27bd0018 	addiu	sp,sp,24

Disassembly of section .text.__string_read:

9d00645c <__string_read>:
9d00645c:	27bdffd0 	addiu	sp,sp,-48
9d006460:	afb00014 	sw	s0,20(sp)
9d006464:	8c900038 	lw	s0,56(a0)
9d006468:	afb2001c 	sw	s2,28(sp)
9d00646c:	24d20100 	addiu	s2,a2,256
9d006470:	afb50028 	sw	s5,40(sp)
9d006474:	afb40024 	sw	s4,36(sp)
9d006478:	afb30020 	sw	s3,32(sp)
9d00647c:	00a0a825 	move	s5,a1
9d006480:	00809825 	move	s3,a0
9d006484:	00c0a025 	move	s4,a2
9d006488:	00002825 	move	a1,zero
9d00648c:	02403025 	move	a2,s2
9d006490:	02002025 	move	a0,s0
9d006494:	afbf002c 	sw	ra,44(sp)
9d006498:	0f401dfb 	jal	9d0077ec <memchr>
9d00649c:	afb10018 	sw	s1,24(sp)
9d0064a0:	54400001 	bnezl	v0,9d0064a8 <__string_read+0x4c>
9d0064a4:	00509023 	subu	s2,v0,s0
9d0064a8:	0292882b 	sltu	s1,s4,s2
9d0064ac:	0251a00a 	movz	s4,s2,s1
9d0064b0:	02803025 	move	a2,s4
9d0064b4:	02002825 	move	a1,s0
9d0064b8:	0f401e33 	jal	9d0078cc <memcpy>
9d0064bc:	02a02025 	move	a0,s5
9d0064c0:	8fbf002c 	lw	ra,44(sp)
9d0064c4:	02141021 	addu	v0,s0,s4
9d0064c8:	02128021 	addu	s0,s0,s2
9d0064cc:	ae62003c 	sw	v0,60(s3)
9d0064d0:	ae700040 	sw	s0,64(s3)
9d0064d4:	ae700038 	sw	s0,56(s3)
9d0064d8:	02801025 	move	v0,s4
9d0064dc:	8fb50028 	lw	s5,40(sp)
9d0064e0:	8fb40024 	lw	s4,36(sp)
9d0064e4:	8fb30020 	lw	s3,32(sp)
9d0064e8:	8fb2001c 	lw	s2,28(sp)
9d0064ec:	8fb10018 	lw	s1,24(sp)
9d0064f0:	8fb00014 	lw	s0,20(sp)
9d0064f4:	03e00008 	jr	ra
9d0064f8:	27bd0030 	addiu	sp,sp,48

Disassembly of section .text.__stdio_seek:

9d0064fc <__stdio_seek>:
9d0064fc:	8c820004 	lw	v0,4(a0)
9d006500:	27bdffd8 	addiu	sp,sp,-40
9d006504:	afb30020 	sw	s3,32(sp)
9d006508:	30420020 	andi	v0,v0,0x20
9d00650c:	afb2001c 	sw	s2,28(sp)
9d006510:	afb00018 	sw	s0,24(sp)
9d006514:	afbf0024 	sw	ra,36(sp)
9d006518:	00808025 	move	s0,a0
9d00651c:	00c09025 	move	s2,a2
9d006520:	10400009 	beqz	v0,9d006548 <__stdio_seek+0x4c>
9d006524:	00e09825 	move	s3,a3
9d006528:	8c820014 	lw	v0,20(a0)
9d00652c:	8c830018 	lw	v1,24(a0)
9d006530:	0062102b 	sltu	v0,v1,v0
9d006534:	5440000c 	bnezl	v0,9d006568 <__stdio_seek+0x6c>
9d006538:	8c82002c 	lw	v0,44(a0)
9d00653c:	ae000028 	sw	zero,40(s0)
9d006540:	ae000018 	sw	zero,24(s0)
9d006544:	ae000014 	sw	zero,20(s0)
9d006548:	8fa20038 	lw	v0,56(sp)
9d00654c:	02403025 	move	a2,s2
9d006550:	02603825 	move	a3,s3
9d006554:	afa20010 	sw	v0,16(sp)
9d006558:	0f401c15 	jal	9d007054 <__stdio_seek_unbuffered>
9d00655c:	02002025 	move	a0,s0
9d006560:	10000009 	b	9d006588 <__stdio_seek+0x8c>
9d006564:	8fbf0024 	lw	ra,36(sp)
9d006568:	00003025 	move	a2,zero
9d00656c:	0040f809 	jalr	v0
9d006570:	00002825 	move	a1,zero
9d006574:	8e040014 	lw	a0,20(s0)
9d006578:	2402ffff 	li	v0,-1
9d00657c:	1480ffef 	bnez	a0,9d00653c <__stdio_seek+0x40>
9d006580:	2403ffff 	li	v1,-1
9d006584:	8fbf0024 	lw	ra,36(sp)
9d006588:	8fb30020 	lw	s3,32(sp)
9d00658c:	8fb2001c 	lw	s2,28(sp)
9d006590:	8fb00018 	lw	s0,24(sp)
9d006594:	03e00008 	jr	ra
9d006598:	27bd0028 	addiu	sp,sp,40

Disassembly of section .text.__stdio_close:

9d00659c <__stdio_close>:
9d00659c:	54800003 	bnezl	a0,9d0065ac <__stdio_close+0x10>
9d0065a0:	8c820004 	lw	v0,4(a0)
9d0065a4:	03e00008 	jr	ra
9d0065a8:	00001025 	move	v0,zero
9d0065ac:	27bdffe0 	addiu	sp,sp,-32
9d0065b0:	afb10018 	sw	s1,24(sp)
9d0065b4:	30420020 	andi	v0,v0,0x20
9d0065b8:	afb00014 	sw	s0,20(sp)
9d0065bc:	afbf001c 	sw	ra,28(sp)
9d0065c0:	00808025 	move	s0,a0
9d0065c4:	1440000a 	bnez	v0,9d0065f0 <__stdio_close+0x54>
9d0065c8:	00a08825 	move	s1,a1
9d0065cc:	ae000028 	sw	zero,40(s0)
9d0065d0:	ae000018 	sw	zero,24(s0)
9d0065d4:	ae000014 	sw	zero,20(s0)
9d0065d8:	12200011 	beqz	s1,9d006620 <__stdio_close+0x84>
9d0065dc:	00001025 	move	v0,zero
9d0065e0:	0f401f39 	jal	9d007ce4 <close>
9d0065e4:	8e040000 	lw	a0,0(s0)
9d0065e8:	1000000e 	b	9d006624 <__stdio_close+0x88>
9d0065ec:	8fbf001c 	lw	ra,28(sp)
9d0065f0:	8c820014 	lw	v0,20(a0)
9d0065f4:	8c830018 	lw	v1,24(a0)
9d0065f8:	0062102b 	sltu	v0,v1,v0
9d0065fc:	5040fff4 	beqzl	v0,9d0065d0 <__stdio_close+0x34>
9d006600:	ae000028 	sw	zero,40(s0)
9d006604:	8c82002c 	lw	v0,44(a0)
9d006608:	00003025 	move	a2,zero
9d00660c:	0040f809 	jalr	v0
9d006610:	00002825 	move	a1,zero
9d006614:	8e030014 	lw	v1,20(s0)
9d006618:	1460ffec 	bnez	v1,9d0065cc <__stdio_close+0x30>
9d00661c:	2402ffff 	li	v0,-1
9d006620:	8fbf001c 	lw	ra,28(sp)
9d006624:	8fb10018 	lw	s1,24(sp)
9d006628:	8fb00014 	lw	s0,20(sp)
9d00662c:	03e00008 	jr	ra
9d006630:	27bd0020 	addiu	sp,sp,32

Disassembly of section .text.__overflow:

9d006634 <__overflow>:
9d006634:	8c820028 	lw	v0,40(a0)
9d006638:	27bdffe0 	addiu	sp,sp,-32
9d00663c:	afb00018 	sw	s0,24(sp)
9d006640:	afbf001c 	sw	ra,28(sp)
9d006644:	00808025 	move	s0,a0
9d006648:	10400010 	beqz	v0,9d00668c <__overflow+0x58>
9d00664c:	a3a50010 	sb	a1,16(sp)
9d006650:	8e030014 	lw	v1,20(s0)
9d006654:	8e020028 	lw	v0,40(s0)
9d006658:	0062102b 	sltu	v0,v1,v0
9d00665c:	14400014 	bnez	v0,9d0066b0 <__overflow+0x7c>
9d006660:	93a20010 	lbu	v0,16(sp)
9d006664:	8e02002c 	lw	v0,44(s0)
9d006668:	24060001 	li	a2,1
9d00666c:	27a50010 	addiu	a1,sp,16
9d006670:	0040f809 	jalr	v0
9d006674:	02002025 	move	a0,s0
9d006678:	24030001 	li	v1,1
9d00667c:	14430007 	bne	v0,v1,9d00669c <__overflow+0x68>
9d006680:	93a20010 	lbu	v0,16(sp)
9d006684:	10000007 	b	9d0066a4 <__overflow+0x70>
9d006688:	8fbf001c 	lw	ra,28(sp)
9d00668c:	0f401d3d 	jal	9d0074f4 <__towrite>
9d006690:	00000000 	nop
9d006694:	5040ffef 	beqzl	v0,9d006654 <__overflow+0x20>
9d006698:	8e030014 	lw	v1,20(s0)
9d00669c:	2402ffff 	li	v0,-1
9d0066a0:	8fbf001c 	lw	ra,28(sp)
9d0066a4:	8fb00018 	lw	s0,24(sp)
9d0066a8:	03e00008 	jr	ra
9d0066ac:	27bd0020 	addiu	sp,sp,32
9d0066b0:	82040034 	lb	a0,52(s0)
9d0066b4:	5044ffec 	beql	v0,a0,9d006668 <__overflow+0x34>
9d0066b8:	8e02002c 	lw	v0,44(s0)
9d0066bc:	24640001 	addiu	a0,v1,1
9d0066c0:	ae040014 	sw	a0,20(s0)
9d0066c4:	1000fff6 	b	9d0066a0 <__overflow+0x6c>
9d0066c8:	a0620000 	sb	v0,0(v1)

Disassembly of section .text.__toread:

9d0066cc <__toread>:
9d0066cc:	27bdffe8 	addiu	sp,sp,-24
9d0066d0:	afb00010 	sw	s0,16(sp)
9d0066d4:	afbf0014 	sw	ra,20(sp)
9d0066d8:	80820048 	lb	v0,72(a0)
9d0066dc:	2443ffff 	addiu	v1,v0,-1
9d0066e0:	00431025 	or	v0,v0,v1
9d0066e4:	a0820048 	sb	v0,72(a0)
9d0066e8:	8c830018 	lw	v1,24(a0)
9d0066ec:	8c820014 	lw	v0,20(a0)
9d0066f0:	0062102b 	sltu	v0,v1,v0
9d0066f4:	10400005 	beqz	v0,9d00670c <__toread+0x40>
9d0066f8:	00808025 	move	s0,a0
9d0066fc:	8c82002c 	lw	v0,44(a0)
9d006700:	00003025 	move	a2,zero
9d006704:	0040f809 	jalr	v0
9d006708:	00002825 	move	a1,zero
9d00670c:	8e020004 	lw	v0,4(s0)
9d006710:	ae000028 	sw	zero,40(s0)
9d006714:	ae000018 	sw	zero,24(s0)
9d006718:	30430002 	andi	v1,v0,0x2
9d00671c:	10600008 	beqz	v1,9d006740 <__toread+0x74>
9d006720:	ae000014 	sw	zero,20(s0)
9d006724:	34420010 	ori	v0,v0,0x10
9d006728:	ae020004 	sw	v0,4(s0)
9d00672c:	2402ffff 	li	v0,-1
9d006730:	8fbf0014 	lw	ra,20(sp)
9d006734:	8fb00010 	lw	s0,16(sp)
9d006738:	03e00008 	jr	ra
9d00673c:	27bd0018 	addiu	sp,sp,24
9d006740:	8e030008 	lw	v1,8(s0)
9d006744:	8e04000c 	lw	a0,12(s0)
9d006748:	7c4200c0 	ext	v0,v0,0x3,0x1
9d00674c:	00021023 	negu	v0,v0
9d006750:	00641821 	addu	v1,v1,a0
9d006754:	ae030040 	sw	v1,64(s0)
9d006758:	1000fff5 	b	9d006730 <__toread+0x64>
9d00675c:	ae03003c 	sw	v1,60(s0)

Disassembly of section .text:

9d006760 <__pic32_data_init>:
9d006760:	03e01825 	move	v1,ra

9d006764 <_dinit_init>:
9d006764:	3c089d00 	lui	t0,0x9d00
9d006768:	25085184 	addiu	t0,t0,20868
9d00676c:	1100001b 	beqz	t0,9d0067dc <_dinit_end+0x18>
9d006770:	00000000 	nop
9d006774:	8d090000 	lw	t1,0(t0)
9d006778:	11200018 	beqz	t1,9d0067dc <_dinit_end+0x18>
9d00677c:	25080004 	addiu	t0,t0,4
9d006780:	8d0a0000 	lw	t2,0(t0)
9d006784:	25080004 	addiu	t0,t0,4
9d006788:	8d0b0000 	lw	t3,0(t0)
9d00678c:	11600009 	beqz	t3,9d0067b4 <_dinit_clear>
9d006790:	25080004 	addiu	t0,t0,4

9d006794 <_dinit_copy>:
9d006794:	910c0000 	lbu	t4,0(t0)
9d006798:	254affff 	addiu	t2,t2,-1
9d00679c:	25080001 	addiu	t0,t0,1
9d0067a0:	a12c0000 	sb	t4,0(t1)
9d0067a4:	1540fffb 	bnez	t2,9d006794 <_dinit_copy>
9d0067a8:	25290001 	addiu	t1,t1,1
9d0067ac:	10000005 	b	9d0067c4 <_dinit_end>
9d0067b0:	00000000 	nop

9d0067b4 <_dinit_clear>:
9d0067b4:	a1200000 	sb	zero,0(t1)
9d0067b8:	254affff 	addiu	t2,t2,-1
9d0067bc:	1540fffd 	bnez	t2,9d0067b4 <_dinit_clear>
9d0067c0:	25290001 	addiu	t1,t1,1

9d0067c4 <_dinit_end>:
9d0067c4:	25080003 	addiu	t0,t0,3
9d0067c8:	240afffc 	li	t2,-4
9d0067cc:	01484024 	and	t0,t2,t0
9d0067d0:	8d090000 	lw	t1,0(t0)
9d0067d4:	1520ffe7 	bnez	t1,9d006774 <_dinit_init+0x10>
9d0067d8:	00000000 	nop
9d0067dc:	0060f825 	move	ra,v1
9d0067e0:	03e00008 	jr	ra
9d0067e4:	00000000 	nop
9d0067e8:	00000000 	nop

Disassembly of section .text.__out:

9d0067ec <__out>:
9d0067ec:	8c820004 	lw	v0,4(a0)
9d0067f0:	27bdffe0 	addiu	sp,sp,-32
9d0067f4:	afbf001c 	sw	ra,28(sp)
9d0067f8:	30470100 	andi	a3,v0,0x100
9d0067fc:	afb10018 	sw	s1,24(sp)
9d006800:	10e00016 	beqz	a3,9d00685c <__out+0x70>
9d006804:	afb00014 	sw	s0,20(sp)
9d006808:	8c820010 	lw	v0,16(a0)
9d00680c:	00808025 	move	s0,a0
9d006810:	00c01825 	move	v1,a2
9d006814:	00c2882b 	sltu	s1,a2,v0
9d006818:	8c840014 	lw	a0,20(a0)
9d00681c:	0051180a 	movz	v1,v0,s1
9d006820:	00603025 	move	a2,v1
9d006824:	0f401e33 	jal	9d0078cc <memcpy>
9d006828:	00608825 	move	s1,v1
9d00682c:	8e020014 	lw	v0,20(s0)
9d006830:	8e030010 	lw	v1,16(s0)
9d006834:	00511021 	addu	v0,v0,s1
9d006838:	00718823 	subu	s1,v1,s1
9d00683c:	ae020014 	sw	v0,20(s0)
9d006840:	ae110010 	sw	s1,16(s0)
9d006844:	a0400000 	sb	zero,0(v0)
9d006848:	8fbf001c 	lw	ra,28(sp)
9d00684c:	8fb10018 	lw	s1,24(sp)
9d006850:	8fb00014 	lw	s0,20(sp)
9d006854:	03e00008 	jr	ra
9d006858:	27bd0020 	addiu	sp,sp,32
9d00685c:	30420010 	andi	v0,v0,0x10
9d006860:	5440fffa 	bnezl	v0,9d00684c <__out+0x60>
9d006864:	8fbf001c 	lw	ra,28(sp)
9d006868:	0f401dee 	jal	9d0077b8 <__fwrite>
9d00686c:	00000000 	nop
9d006870:	1000fff6 	b	9d00684c <__out+0x60>
9d006874:	8fbf001c 	lw	ra,28(sp)

Disassembly of section .text.__fopen_rw:

9d006878 <__fopen_rw>:
9d006878:	27bdffe8 	addiu	sp,sp,-24
9d00687c:	afb00010 	sw	s0,16(sp)
9d006880:	afbf0014 	sw	ra,20(sp)
9d006884:	0f400f2e 	jal	9d003cb8 <malloc>
9d006888:	24040470 	li	a0,1136
9d00688c:	10400017 	beqz	v0,9d0068ec <__fopen_rw+0x74>
9d006890:	00408025 	move	s0,v0
9d006894:	24060068 	li	a2,104
9d006898:	00002825 	move	a1,zero
9d00689c:	0f401e7c 	jal	9d0079f0 <memset>
9d0068a0:	00402025 	move	a0,v0
9d0068a4:	3c029d00 	lui	v0,0x9d00
9d0068a8:	24427a5c 	addiu	v0,v0,31324
9d0068ac:	ae02002c 	sw	v0,44(s0)
9d0068b0:	3c029d00 	lui	v0,0x9d00
9d0068b4:	24425c34 	addiu	v0,v0,23604
9d0068b8:	ae020030 	sw	v0,48(s0)
9d0068bc:	3c029d00 	lui	v0,0x9d00
9d0068c0:	24425ec0 	addiu	v0,v0,24256
9d0068c4:	ae02001c 	sw	v0,28(s0)
9d0068c8:	3c029d00 	lui	v0,0x9d00
9d0068cc:	24425df4 	addiu	v0,v0,24052
9d0068d0:	ae020044 	sw	v0,68(s0)
9d0068d4:	2402ffff 	li	v0,-1
9d0068d8:	a2020034 	sb	v0,52(s0)
9d0068dc:	26020070 	addiu	v0,s0,112
9d0068e0:	ae020008 	sw	v0,8(s0)
9d0068e4:	24020400 	li	v0,1024
9d0068e8:	ae02000c 	sw	v0,12(s0)
9d0068ec:	8fbf0014 	lw	ra,20(sp)
9d0068f0:	02001025 	move	v0,s0
9d0068f4:	8fb00010 	lw	s0,16(sp)
9d0068f8:	03e00008 	jr	ra
9d0068fc:	27bd0018 	addiu	sp,sp,24

Disassembly of section .text.write:

9d006900 <write>:
9d006900:	27bdffe0 	addiu	sp,sp,-32
9d006904:	afb10014 	sw	s1,20(sp)
9d006908:	afbf001c 	sw	ra,28(sp)
9d00690c:	afb20018 	sw	s2,24(sp)
9d006910:	afb00010 	sw	s0,16(sp)
9d006914:	10a0000d 	beqz	a1,9d00694c <write+0x4c>
9d006918:	00008825 	move	s1,zero
9d00691c:	50c0000c 	beqzl	a2,9d006950 <write+0x50>
9d006920:	8fbf001c 	lw	ra,28(sp)
9d006924:	2c840003 	sltiu	a0,a0,3
9d006928:	10800008 	beqz	a0,9d00694c <write+0x4c>
9d00692c:	00c08825 	move	s1,a2
9d006930:	3c020000 	lui	v0,0x0
9d006934:	24420000 	addiu	v0,v0,0
9d006938:	1040000b 	beqz	v0,9d006968 <write+0x68>
9d00693c:	00a08025 	move	s0,a1
9d006940:	00c02825 	move	a1,a2
9d006944:	0c000000 	jal	90000000 <_bmxdudba_address+0x8ffe0000>
9d006948:	02002025 	move	a0,s0
9d00694c:	8fbf001c 	lw	ra,28(sp)
9d006950:	02201025 	move	v0,s1
9d006954:	8fb20018 	lw	s2,24(sp)
9d006958:	8fb10014 	lw	s1,20(sp)
9d00695c:	8fb00010 	lw	s0,16(sp)
9d006960:	03e00008 	jr	ra
9d006964:	27bd0020 	addiu	sp,sp,32
9d006968:	00a69021 	addu	s2,a1,a2
9d00696c:	82040000 	lb	a0,0(s0)
9d006970:	0f4014b1 	jal	9d0052c4 <_mon_putc>
9d006974:	26100001 	addiu	s0,s0,1
9d006978:	5650fffd 	bnel	s2,s0,9d006970 <write+0x70>
9d00697c:	82040000 	lb	a0,0(s0)
9d006980:	1000fff3 	b	9d006950 <write+0x50>
9d006984:	8fbf001c 	lw	ra,28(sp)

Disassembly of section .text.atoi:

9d006988 <atoi>:
9d006988:	24050020 	li	a1,32
9d00698c:	80820000 	lb	v0,0(a0)
9d006990:	1045000e 	beq	v0,a1,9d0069cc <atoi+0x44>
9d006994:	2443fff7 	addiu	v1,v0,-9
9d006998:	2c630005 	sltiu	v1,v1,5
9d00699c:	5460fffb 	bnezl	v1,9d00698c <atoi+0x4>
9d0069a0:	24840001 	addiu	a0,a0,1
9d0069a4:	2403002b 	li	v1,43
9d0069a8:	1043000a 	beq	v0,v1,9d0069d4 <atoi+0x4c>
9d0069ac:	2403002d 	li	v1,45
9d0069b0:	14430003 	bne	v0,v1,9d0069c0 <atoi+0x38>
9d0069b4:	00002825 	move	a1,zero
9d0069b8:	24050001 	li	a1,1
9d0069bc:	24840001 	addiu	a0,a0,1
9d0069c0:	00001025 	move	v0,zero
9d0069c4:	10000007 	b	9d0069e4 <atoi+0x5c>
9d0069c8:	2407000a 	li	a3,10
9d0069cc:	1000ffef 	b	9d00698c <atoi+0x4>
9d0069d0:	24840001 	addiu	a0,a0,1
9d0069d4:	1000fff9 	b	9d0069bc <atoi+0x34>
9d0069d8:	00002825 	move	a1,zero
9d0069dc:	24840001 	addiu	a0,a0,1
9d0069e0:	00431023 	subu	v0,v0,v1
9d0069e4:	80830000 	lb	v1,0(a0)
9d0069e8:	2463ffd0 	addiu	v1,v1,-48
9d0069ec:	2c66000a 	sltiu	a2,v1,10
9d0069f0:	54c0fffa 	bnezl	a2,9d0069dc <atoi+0x54>
9d0069f4:	70471002 	mul	v0,v0,a3
9d0069f8:	50a00001 	beqzl	a1,9d006a00 <atoi+0x78>
9d0069fc:	00021023 	negu	v0,v0
9d006a00:	03e00008 	jr	ra
9d006a04:	00000000 	nop

Disassembly of section .text.__vsnprintf:

9d006a08 <__vsnprintf>:
9d006a08:	27bdffc8 	addiu	sp,sp,-56
9d006a0c:	2403ffff 	li	v1,-1
9d006a10:	afa30010 	sw	v1,16(sp)
9d006a14:	24030102 	li	v1,258
9d006a18:	00a01025 	move	v0,a1
9d006a1c:	afbf0034 	sw	ra,52(sp)
9d006a20:	00c02825 	move	a1,a2
9d006a24:	afa30014 	sw	v1,20(sp)
9d006a28:	14800002 	bnez	a0,9d006a34 <__vsnprintf+0x2c>
9d006a2c:	00e03025 	move	a2,a3
9d006a30:	27a4002c 	addiu	a0,sp,44
9d006a34:	afa40018 	sw	a0,24(sp)
9d006a38:	afa2001c 	sw	v0,28(sp)
9d006a3c:	10400002 	beqz	v0,9d006a48 <__vsnprintf+0x40>
9d006a40:	00001825 	move	v1,zero
9d006a44:	2443ffff 	addiu	v1,v0,-1
9d006a48:	04410008 	bgez	v0,9d006a6c <__vsnprintf+0x64>
9d006a4c:	afa30020 	sw	v1,32(sp)
9d006a50:	3c02a000 	lui	v0,0xa000
9d006a54:	2403004f 	li	v1,79
9d006a58:	ac43035c 	sw	v1,860(v0)
9d006a5c:	2402ffff 	li	v0,-1
9d006a60:	8fbf0034 	lw	ra,52(sp)
9d006a64:	03e00008 	jr	ra
9d006a68:	27bd0038 	addiu	sp,sp,56
9d006a6c:	afa40028 	sw	a0,40(sp)
9d006a70:	afa40024 	sw	a0,36(sp)
9d006a74:	a0800000 	sb	zero,0(a0)
9d006a78:	0f401d99 	jal	9d007664 <__vfprintf>
9d006a7c:	27a40010 	addiu	a0,sp,16
9d006a80:	1000fff8 	b	9d006a64 <__vsnprintf+0x5c>
9d006a84:	8fbf0034 	lw	ra,52(sp)

Disassembly of section .text.__readv:

9d006a88 <readv>:
9d006a88:	27bdffd8 	addiu	sp,sp,-40
9d006a8c:	afb40020 	sw	s4,32(sp)
9d006a90:	afb3001c 	sw	s3,28(sp)
9d006a94:	afb20018 	sw	s2,24(sp)
9d006a98:	afb10014 	sw	s1,20(sp)
9d006a9c:	afb00010 	sw	s0,16(sp)
9d006aa0:	afbf0024 	sw	ra,36(sp)
9d006aa4:	0080a025 	move	s4,a0
9d006aa8:	00c09825 	move	s3,a2
9d006aac:	00a08025 	move	s0,a1
9d006ab0:	00008825 	move	s1,zero
9d006ab4:	00009025 	move	s2,zero
9d006ab8:	0253102a 	slt	v0,s2,s3
9d006abc:	5440000a 	bnezl	v0,9d006ae8 <readv+0x60>
9d006ac0:	8e060004 	lw	a2,4(s0)
9d006ac4:	8fbf0024 	lw	ra,36(sp)
9d006ac8:	02201025 	move	v0,s1
9d006acc:	8fb40020 	lw	s4,32(sp)
9d006ad0:	8fb3001c 	lw	s3,28(sp)
9d006ad4:	8fb20018 	lw	s2,24(sp)
9d006ad8:	8fb10014 	lw	s1,20(sp)
9d006adc:	8fb00010 	lw	s0,16(sp)
9d006ae0:	03e00008 	jr	ra
9d006ae4:	27bd0028 	addiu	sp,sp,40
9d006ae8:	8e050000 	lw	a1,0(s0)
9d006aec:	02802025 	move	a0,s4
9d006af0:	0f401ef3 	jal	9d007bcc <__read>
9d006af4:	26520001 	addiu	s2,s2,1
9d006af8:	02228821 	addu	s1,s1,v0
9d006afc:	1000ffee 	b	9d006ab8 <readv+0x30>
9d006b00:	26100008 	addiu	s0,s0,8

Disassembly of section .text.__consumews:

9d006b04 <__consumews>:
9d006b04:	8ca20000 	lw	v0,0(a1)
9d006b08:	24030020 	li	v1,32
9d006b0c:	80420000 	lb	v0,0(v0)
9d006b10:	10430004 	beq	v0,v1,9d006b24 <__consumews+0x20>
9d006b14:	2442fff7 	addiu	v0,v0,-9
9d006b18:	2c430005 	sltiu	v1,v0,5
9d006b1c:	10600014 	beqz	v1,9d006b70 <__consumews+0x6c>
9d006b20:	00001025 	move	v0,zero
9d006b24:	27bdffe8 	addiu	sp,sp,-24
9d006b28:	afb00010 	sw	s0,16(sp)
9d006b2c:	afbf0014 	sw	ra,20(sp)
9d006b30:	0f401840 	jal	9d006100 <__skipws>
9d006b34:	00a08025 	move	s0,a1
9d006b38:	24040020 	li	a0,32
9d006b3c:	8e030000 	lw	v1,0(s0)
9d006b40:	24650001 	addiu	a1,v1,1
9d006b44:	ae050000 	sw	a1,0(s0)
9d006b48:	80630001 	lb	v1,1(v1)
9d006b4c:	1064fffb 	beq	v1,a0,9d006b3c <__consumews+0x38>
9d006b50:	2463fff7 	addiu	v1,v1,-9
9d006b54:	2c630005 	sltiu	v1,v1,5
9d006b58:	5460fff9 	bnezl	v1,9d006b40 <__consumews+0x3c>
9d006b5c:	8e030000 	lw	v1,0(s0)
9d006b60:	8fbf0014 	lw	ra,20(sp)
9d006b64:	8fb00010 	lw	s0,16(sp)
9d006b68:	03e00008 	jr	ra
9d006b6c:	27bd0018 	addiu	sp,sp,24
9d006b70:	03e00008 	jr	ra
9d006b74:	00000000 	nop

Disassembly of section .text.__putc:

9d006b78 <__putc>:
9d006b78:	8ca20004 	lw	v0,4(a1)
9d006b7c:	27bdffe8 	addiu	sp,sp,-24
9d006b80:	30420020 	andi	v0,v0,0x20
9d006b84:	14400006 	bnez	v0,9d006ba0 <__putc+0x28>
9d006b88:	afbf0014 	sw	ra,20(sp)
9d006b8c:	0f401ba0 	jal	9d006e80 <__putc_unbuffered>
9d006b90:	00000000 	nop
9d006b94:	8fbf0014 	lw	ra,20(sp)
9d006b98:	03e00008 	jr	ra
9d006b9c:	27bd0018 	addiu	sp,sp,24
9d006ba0:	00803025 	move	a2,a0
9d006ba4:	308200ff 	andi	v0,a0,0xff
9d006ba8:	80a40034 	lb	a0,52(a1)
9d006bac:	1082000a 	beq	a0,v0,9d006bd8 <__putc+0x60>
9d006bb0:	00a01825 	move	v1,a1
9d006bb4:	8ca40014 	lw	a0,20(a1)
9d006bb8:	8ca50028 	lw	a1,40(a1)
9d006bbc:	0085282b 	sltu	a1,a0,a1
9d006bc0:	10a00006 	beqz	a1,9d006bdc <__putc+0x64>
9d006bc4:	00c02825 	move	a1,a2
9d006bc8:	24850001 	addiu	a1,a0,1
9d006bcc:	ac650014 	sw	a1,20(v1)
9d006bd0:	1000fff0 	b	9d006b94 <__putc+0x1c>
9d006bd4:	a0860000 	sb	a2,0(a0)
9d006bd8:	00c02825 	move	a1,a2
9d006bdc:	0f40198d 	jal	9d006634 <__overflow>
9d006be0:	00602025 	move	a0,v1
9d006be4:	1000ffec 	b	9d006b98 <__putc+0x20>
9d006be8:	8fbf0014 	lw	ra,20(sp)

Disassembly of section .text.alloc_rev:

9d006bec <alloc_rev>:
9d006bec:	8c860000 	lw	a2,0(a0)
9d006bf0:	30c20001 	andi	v0,a2,0x1
9d006bf4:	10400008 	beqz	v0,9d006c18 <alloc_rev+0x2c>
9d006bf8:	00803825 	move	a3,a0
9d006bfc:	03e00008 	jr	ra
9d006c00:	00001025 	move	v0,zero
9d006c04:	30c20001 	andi	v0,a2,0x1
9d006c08:	10400005 	beqz	v0,9d006c20 <alloc_rev+0x34>
9d006c0c:	00001025 	move	v0,zero
9d006c10:	10000011 	b	9d006c58 <alloc_rev+0x6c>
9d006c14:	8fbf0014 	lw	ra,20(sp)
9d006c18:	27bdffe8 	addiu	sp,sp,-24
9d006c1c:	afbf0014 	sw	ra,20(sp)
9d006c20:	0f401b87 	jal	9d006e1c <bin_index>
9d006c24:	00c02025 	move	a0,a2
9d006c28:	00402025 	move	a0,v0
9d006c2c:	0f401dd4 	jal	9d007750 <lock_bin>
9d006c30:	00404025 	move	t0,v0
9d006c34:	8ce40000 	lw	a0,0(a3)
9d006c38:	5486fff2 	bnel	a0,a2,9d006c04 <alloc_rev+0x18>
9d006c3c:	8ce60000 	lw	a2,0(a3)
9d006c40:	7c040004 	ins	a0,zero,0x0,0x1
9d006c44:	01002825 	move	a1,t0
9d006c48:	0f401898 	jal	9d006260 <unbin>
9d006c4c:	00e42023 	subu	a0,a3,a0
9d006c50:	24020001 	li	v0,1
9d006c54:	8fbf0014 	lw	ra,20(sp)
9d006c58:	03e00008 	jr	ra
9d006c5c:	27bd0018 	addiu	sp,sp,24

Disassembly of section .text.__scan_d:

9d006c60 <__scan_d>:
9d006c60:	27bdffd8 	addiu	sp,sp,-40
9d006c64:	afb10020 	sw	s1,32(sp)
9d006c68:	afb0001c 	sw	s0,28(sp)
9d006c6c:	00a08825 	move	s1,a1
9d006c70:	8cd0000c 	lw	s0,12(a2)
9d006c74:	00c02825 	move	a1,a2
9d006c78:	afbf0024 	sw	ra,36(sp)
9d006c7c:	0f4013bc 	jal	9d004ef0 <__read_int>
9d006c80:	00e03025 	move	a2,a3
9d006c84:	2403ffff 	li	v1,-1
9d006c88:	1043000c 	beq	v0,v1,9d006cbc <__scan_d+0x5c>
9d006c8c:	02002025 	move	a0,s0
9d006c90:	2406000a 	li	a2,10
9d006c94:	0f401e12 	jal	9d007848 <strtoll>
9d006c98:	27a50010 	addiu	a1,sp,16
9d006c9c:	ae220000 	sw	v0,0(s1)
9d006ca0:	8fa20010 	lw	v0,16(sp)
9d006ca4:	ae230004 	sw	v1,4(s1)
9d006ca8:	2404fffe 	li	a0,-2
9d006cac:	00501026 	xor	v0,v0,s0
9d006cb0:	24030001 	li	v1,1
9d006cb4:	0082180a 	movz	v1,a0,v0
9d006cb8:	00601025 	move	v0,v1
9d006cbc:	8fbf0024 	lw	ra,36(sp)
9d006cc0:	8fb10020 	lw	s1,32(sp)
9d006cc4:	8fb0001c 	lw	s0,28(sp)
9d006cc8:	03e00008 	jr	ra
9d006ccc:	27bd0028 	addiu	sp,sp,40

Disassembly of section .text.__scan_u:

9d006cd0 <__scan_u>:
9d006cd0:	27bdffd8 	addiu	sp,sp,-40
9d006cd4:	afb10020 	sw	s1,32(sp)
9d006cd8:	afb0001c 	sw	s0,28(sp)
9d006cdc:	00a08825 	move	s1,a1
9d006ce0:	8cd0000c 	lw	s0,12(a2)
9d006ce4:	00c02825 	move	a1,a2
9d006ce8:	afbf0024 	sw	ra,36(sp)
9d006cec:	0f4013bc 	jal	9d004ef0 <__read_int>
9d006cf0:	00e03025 	move	a2,a3
9d006cf4:	2403ffff 	li	v1,-1
9d006cf8:	1043000c 	beq	v0,v1,9d006d2c <__scan_u+0x5c>
9d006cfc:	02002025 	move	a0,s0
9d006d00:	2406000a 	li	a2,10
9d006d04:	0f401e07 	jal	9d00781c <strtoull>
9d006d08:	27a50010 	addiu	a1,sp,16
9d006d0c:	ae220000 	sw	v0,0(s1)
9d006d10:	8fa20010 	lw	v0,16(sp)
9d006d14:	ae230004 	sw	v1,4(s1)
9d006d18:	2404fffe 	li	a0,-2
9d006d1c:	00501026 	xor	v0,v0,s0
9d006d20:	24030001 	li	v1,1
9d006d24:	0082180a 	movz	v1,a0,v0
9d006d28:	00601025 	move	v0,v1
9d006d2c:	8fbf0024 	lw	ra,36(sp)
9d006d30:	8fb10020 	lw	s1,32(sp)
9d006d34:	8fb0001c 	lw	s0,28(sp)
9d006d38:	03e00008 	jr	ra
9d006d3c:	27bd0028 	addiu	sp,sp,40

Disassembly of section .text.alloc_fwd:

9d006d40 <alloc_fwd>:
9d006d40:	8c860004 	lw	a2,4(a0)
9d006d44:	30c20001 	andi	v0,a2,0x1
9d006d48:	10400008 	beqz	v0,9d006d6c <alloc_fwd+0x2c>
9d006d4c:	00803825 	move	a3,a0
9d006d50:	03e00008 	jr	ra
9d006d54:	00001025 	move	v0,zero
9d006d58:	30c20001 	andi	v0,a2,0x1
9d006d5c:	10400005 	beqz	v0,9d006d74 <alloc_fwd+0x34>
9d006d60:	00001025 	move	v0,zero
9d006d64:	10000010 	b	9d006da8 <alloc_fwd+0x68>
9d006d68:	8fbf0014 	lw	ra,20(sp)
9d006d6c:	27bdffe8 	addiu	sp,sp,-24
9d006d70:	afbf0014 	sw	ra,20(sp)
9d006d74:	0f401b87 	jal	9d006e1c <bin_index>
9d006d78:	00c02025 	move	a0,a2
9d006d7c:	00402025 	move	a0,v0
9d006d80:	0f401dd4 	jal	9d007750 <lock_bin>
9d006d84:	00404025 	move	t0,v0
9d006d88:	8ce20004 	lw	v0,4(a3)
9d006d8c:	5446fff2 	bnel	v0,a2,9d006d58 <alloc_fwd+0x18>
9d006d90:	8ce60004 	lw	a2,4(a3)
9d006d94:	01002825 	move	a1,t0
9d006d98:	0f401898 	jal	9d006260 <unbin>
9d006d9c:	00e02025 	move	a0,a3
9d006da0:	24020001 	li	v0,1
9d006da4:	8fbf0014 	lw	ra,20(sp)
9d006da8:	03e00008 	jr	ra
9d006dac:	27bd0018 	addiu	sp,sp,24

Disassembly of section .text.__vsscanf:

9d006db0 <__vsscanf>:
9d006db0:	27bdff78 	addiu	sp,sp,-136
9d006db4:	afb20080 	sw	s2,128(sp)
9d006db8:	afb1007c 	sw	s1,124(sp)
9d006dbc:	afb00078 	sw	s0,120(sp)
9d006dc0:	00a08825 	move	s1,a1
9d006dc4:	00808025 	move	s0,a0
9d006dc8:	00c09025 	move	s2,a2
9d006dcc:	27a40010 	addiu	a0,sp,16
9d006dd0:	24060068 	li	a2,104
9d006dd4:	afbf0084 	sw	ra,132(sp)
9d006dd8:	0f401e7c 	jal	9d0079f0 <memset>
9d006ddc:	00002825 	move	a1,zero
9d006de0:	3c029d00 	lui	v0,0x9d00
9d006de4:	24427b40 	addiu	v0,v0,31552
9d006de8:	02403025 	move	a2,s2
9d006dec:	02202825 	move	a1,s1
9d006df0:	27a40010 	addiu	a0,sp,16
9d006df4:	afb00018 	sw	s0,24(sp)
9d006df8:	afb00048 	sw	s0,72(sp)
9d006dfc:	0f401d7b 	jal	9d0075ec <__vfscanf>
9d006e00:	afa20054 	sw	v0,84(sp)
9d006e04:	8fbf0084 	lw	ra,132(sp)
9d006e08:	8fb20080 	lw	s2,128(sp)
9d006e0c:	8fb1007c 	lw	s1,124(sp)
9d006e10:	8fb00078 	lw	s0,120(sp)
9d006e14:	03e00008 	jr	ra
9d006e18:	27bd0088 	addiu	sp,sp,136

Disassembly of section .text.bin_index:

9d006e1c <bin_index>:
9d006e1c:	00042102 	srl	a0,a0,0x4
9d006e20:	2484ffff 	addiu	a0,a0,-1
9d006e24:	2c820021 	sltiu	v0,a0,33
9d006e28:	50400003 	beqzl	v0,9d006e38 <bin_index+0x1c>
9d006e2c:	2c820200 	sltiu	v0,a0,512
9d006e30:	03e00008 	jr	ra
9d006e34:	00801025 	move	v0,a0
9d006e38:	10400007 	beqz	v0,9d006e58 <bin_index+0x3c>
9d006e3c:	2c831c01 	sltiu	v1,a0,7169
9d006e40:	3c029d00 	lui	v0,0x9d00
9d006e44:	24427018 	addiu	v0,v0,28696
9d006e48:	000420c2 	srl	a0,a0,0x3
9d006e4c:	00822021 	addu	a0,a0,v0
9d006e50:	03e00008 	jr	ra
9d006e54:	9082fffc 	lbu	v0,-4(a0)
9d006e58:	10600007 	beqz	v1,9d006e78 <bin_index+0x5c>
9d006e5c:	2402003f 	li	v0,63
9d006e60:	3c029d00 	lui	v0,0x9d00
9d006e64:	24427018 	addiu	v0,v0,28696
9d006e68:	000421c2 	srl	a0,a0,0x7
9d006e6c:	00822021 	addu	a0,a0,v0
9d006e70:	9082fffc 	lbu	v0,-4(a0)
9d006e74:	24420010 	addiu	v0,v0,16
9d006e78:	03e00008 	jr	ra
9d006e7c:	00000000 	nop

Disassembly of section .text.__putc_unbuffered:

9d006e80 <__putc_unbuffered>:
9d006e80:	8ca20004 	lw	v0,4(a1)
9d006e84:	27bdffe0 	addiu	sp,sp,-32
9d006e88:	308300ff 	andi	v1,a0,0xff
9d006e8c:	30420100 	andi	v0,v0,0x100
9d006e90:	afbf001c 	sw	ra,28(sp)
9d006e94:	1040000a 	beqz	v0,9d006ec0 <__putc_unbuffered+0x40>
9d006e98:	a3a30010 	sb	v1,16(sp)
9d006e9c:	8ca20014 	lw	v0,20(a1)
9d006ea0:	308400ff 	andi	a0,a0,0xff
9d006ea4:	24460001 	addiu	a2,v0,1
9d006ea8:	aca60014 	sw	a2,20(a1)
9d006eac:	a0430000 	sb	v1,0(v0)
9d006eb0:	8fbf001c 	lw	ra,28(sp)
9d006eb4:	00801025 	move	v0,a0
9d006eb8:	03e00008 	jr	ra
9d006ebc:	27bd0020 	addiu	sp,sp,32
9d006ec0:	00a02025 	move	a0,a1
9d006ec4:	24060001 	li	a2,1
9d006ec8:	0f401dee 	jal	9d0077b8 <__fwrite>
9d006ecc:	27a50010 	addiu	a1,sp,16
9d006ed0:	1040fff7 	beqz	v0,9d006eb0 <__putc_unbuffered+0x30>
9d006ed4:	2404ffff 	li	a0,-1
9d006ed8:	1000fff5 	b	9d006eb0 <__putc_unbuffered+0x30>
9d006edc:	93a40010 	lbu	a0,16(sp)

Disassembly of section .text.__fopen_std:

9d006ee0 <__fopen_std>:
9d006ee0:	27bdffe8 	addiu	sp,sp,-24
9d006ee4:	afb00010 	sw	s0,16(sp)
9d006ee8:	afbf0014 	sw	ra,20(sp)
9d006eec:	0f400f2e 	jal	9d003cb8 <malloc>
9d006ef0:	24040038 	li	a0,56
9d006ef4:	1040000d 	beqz	v0,9d006f2c <__fopen_std+0x4c>
9d006ef8:	00408025 	move	s0,v0
9d006efc:	24060038 	li	a2,56
9d006f00:	00002825 	move	a1,zero
9d006f04:	0f401e7c 	jal	9d0079f0 <memset>
9d006f08:	00402025 	move	a0,v0
9d006f0c:	3c029d00 	lui	v0,0x9d00
9d006f10:	24427a5c 	addiu	v0,v0,31324
9d006f14:	ae02002c 	sw	v0,44(s0)
9d006f18:	3c029d00 	lui	v0,0x9d00
9d006f1c:	244264fc 	addiu	v0,v0,25852
9d006f20:	ae020030 	sw	v0,48(s0)
9d006f24:	2402ffff 	li	v0,-1
9d006f28:	a2020034 	sb	v0,52(s0)
9d006f2c:	8fbf0014 	lw	ra,20(sp)
9d006f30:	02001025 	move	v0,s0
9d006f34:	8fb00010 	lw	s0,16(sp)
9d006f38:	03e00008 	jr	ra
9d006f3c:	27bd0018 	addiu	sp,sp,24

Disassembly of section .text.__string_out:

9d006f40 <__string_out>:
9d006f40:	8c820010 	lw	v0,16(a0)
9d006f44:	27bdffe0 	addiu	sp,sp,-32
9d006f48:	afb00014 	sw	s0,20(sp)
9d006f4c:	00808025 	move	s0,a0
9d006f50:	8c840014 	lw	a0,20(a0)
9d006f54:	afb10018 	sw	s1,24(sp)
9d006f58:	00c2882b 	sltu	s1,a2,v0
9d006f5c:	0051300a 	movz	a2,v0,s1
9d006f60:	afbf001c 	sw	ra,28(sp)
9d006f64:	0f401e33 	jal	9d0078cc <memcpy>
9d006f68:	00c08825 	move	s1,a2
9d006f6c:	8e020014 	lw	v0,20(s0)
9d006f70:	8e060010 	lw	a2,16(s0)
9d006f74:	00511021 	addu	v0,v0,s1
9d006f78:	00d18823 	subu	s1,a2,s1
9d006f7c:	ae110010 	sw	s1,16(s0)
9d006f80:	ae020014 	sw	v0,20(s0)
9d006f84:	a0400000 	sb	zero,0(v0)
9d006f88:	8fbf001c 	lw	ra,28(sp)
9d006f8c:	8fb10018 	lw	s1,24(sp)
9d006f90:	8fb00014 	lw	s0,20(sp)
9d006f94:	03e00008 	jr	ra
9d006f98:	27bd0020 	addiu	sp,sp,32

Disassembly of section .text.__fmt_state:

9d006f9c <__fmt_state>:
9d006f9c:	3c069d00 	lui	a2,0x9d00
9d006fa0:	00001025 	move	v0,zero
9d006fa4:	24c67c18 	addiu	a2,a2,31768
9d006fa8:	00021840 	sll	v1,v0,0x1
9d006fac:	00661821 	addu	v1,v1,a2
9d006fb0:	80670000 	lb	a3,0(v1)
9d006fb4:	54e00003 	bnezl	a3,9d006fc4 <__fmt_state+0x28>
9d006fb8:	8c850000 	lw	a1,0(a0)
9d006fbc:	03e00008 	jr	ra
9d006fc0:	90620001 	lbu	v0,1(v1)
9d006fc4:	80a80000 	lb	t0,0(a1)
9d006fc8:	15070009 	bne	t0,a3,9d006ff0 <__fmt_state+0x54>
9d006fcc:	24420001 	addiu	v0,v0,1
9d006fd0:	90620001 	lbu	v0,1(v1)
9d006fd4:	24a50001 	addiu	a1,a1,1
9d006fd8:	ac850000 	sw	a1,0(a0)
9d006fdc:	2c43000b 	sltiu	v1,v0,11
9d006fe0:	1460fff2 	bnez	v1,9d006fac <__fmt_state+0x10>
9d006fe4:	00021840 	sll	v1,v0,0x1
9d006fe8:	03e00008 	jr	ra
9d006fec:	00000000 	nop
9d006ff0:	1000fffa 	b	9d006fdc <__fmt_state+0x40>
9d006ff4:	304200ff 	andi	v0,v0,0xff

Disassembly of section .rodata:

9d006ff8 <debruijn32.1766>:
9d006ff8:	02170100 0313181d 0b191b1e 0d040814     ................
9d007008:	121c161f 0c070a1a 06091115 0e0f0510     ................

9d007018 <bin_tab>:
9d007018:	23222120 25252424 27272626 28282828      !"#$$%%&&''((((
9d007028:	29292929 2a2a2a2a 2b2b2b2b 2c2c2c2c     ))))****++++,,,,
9d007038:	2c2c2c2c 2d2d2d2d 2d2d2d2d 2e2e2e2e     ,,,,--------....
9d007048:	2e2e2e2e 2f2f2f2f 2f2f2f2f              ....////////

Disassembly of section .text.__stdio_seek_unbuffered:

9d007054 <__stdio_seek_unbuffered>:
9d007054:	27bdffe0 	addiu	sp,sp,-32
9d007058:	8fa20030 	lw	v0,48(sp)
9d00705c:	afb00018 	sw	s0,24(sp)
9d007060:	00808025 	move	s0,a0
9d007064:	afa20010 	sw	v0,16(sp)
9d007068:	8c840000 	lw	a0,0(a0)
9d00706c:	afbf001c 	sw	ra,28(sp)
9d007070:	0f401f37 	jal	9d007cdc <lseek>
9d007074:	00000000 	nop
9d007078:	0460000a 	bltz	v1,9d0070a4 <__stdio_seek_unbuffered+0x50>
9d00707c:	2402ffff 	li	v0,-1
9d007080:	8e020004 	lw	v0,4(s0)
9d007084:	00001825 	move	v1,zero
9d007088:	7c0218c4 	ins	v0,zero,0x3,0x1
9d00708c:	ae020004 	sw	v0,4(s0)
9d007090:	00001025 	move	v0,zero
9d007094:	8fbf001c 	lw	ra,28(sp)
9d007098:	8fb00018 	lw	s0,24(sp)
9d00709c:	03e00008 	jr	ra
9d0070a0:	27bd0020 	addiu	sp,sp,32
9d0070a4:	1000fffb 	b	9d007094 <__stdio_seek_unbuffered+0x40>
9d0070a8:	2403ffff 	li	v1,-1

Disassembly of section .text.adjust_size:

9d0070ac <adjust_size>:
9d0070ac:	3c03a000 	lui	v1,0xa000
9d0070b0:	8c66031c 	lw	a2,796(v1)
9d0070b4:	8c820000 	lw	v0,0(a0)
9d0070b8:	3c037fff 	lui	v1,0x7fff
9d0070bc:	3463ffef 	ori	v1,v1,0xffef
9d0070c0:	2445ffff 	addiu	a1,v0,-1
9d0070c4:	00661823 	subu	v1,v1,a2
9d0070c8:	0065182b 	sltu	v1,v1,a1
9d0070cc:	5060000b 	beqzl	v1,9d0070fc <adjust_size+0x50>
9d0070d0:	24420017 	addiu	v0,v0,23
9d0070d4:	50400006 	beqzl	v0,9d0070f0 <adjust_size+0x44>
9d0070d8:	24020010 	li	v0,16
9d0070dc:	3c02a000 	lui	v0,0xa000
9d0070e0:	2403000c 	li	v1,12
9d0070e4:	ac43035c 	sw	v1,860(v0)
9d0070e8:	03e00008 	jr	ra
9d0070ec:	2402ffff 	li	v0,-1
9d0070f0:	ac820000 	sw	v0,0(a0)
9d0070f4:	03e00008 	jr	ra
9d0070f8:	00001025 	move	v0,zero
9d0070fc:	1000fffc 	b	9d0070f0 <adjust_size+0x44>
9d007100:	7c021804 	ins	v0,zero,0x0,0x4

Disassembly of section .text.trim:

9d007104 <trim>:
9d007104:	8c820004 	lw	v0,4(a0)
9d007108:	7c020004 	ins	v0,zero,0x0,0x1
9d00710c:	00451823 	subu	v1,v0,a1
9d007110:	2c660011 	sltiu	a2,v1,17
9d007114:	14c0000f 	bnez	a2,9d007154 <trim+0x50>
9d007118:	00853021 	addu	a2,a0,a1
9d00711c:	27bdffe8 	addiu	sp,sp,-24
9d007120:	34a50001 	ori	a1,a1,0x1
9d007124:	34630001 	ori	v1,v1,0x1
9d007128:	00821021 	addu	v0,a0,v0
9d00712c:	afbf0014 	sw	ra,20(sp)
9d007130:	acc50000 	sw	a1,0(a2)
9d007134:	acc30004 	sw	v1,4(a2)
9d007138:	ac430000 	sw	v1,0(v0)
9d00713c:	ac850004 	sw	a1,4(a0)
9d007140:	0f401140 	jal	9d004500 <free>
9d007144:	24c40008 	addiu	a0,a2,8
9d007148:	8fbf0014 	lw	ra,20(sp)
9d00714c:	03e00008 	jr	ra
9d007150:	27bd0018 	addiu	sp,sp,24
9d007154:	03e00008 	jr	ra
9d007158:	00000000 	nop

Disassembly of section .text.main_entry:

9d00715c <_main_entry>:
9d00715c:	3c040000 	lui	a0,0x0
9d007160:	27bdffe8 	addiu	sp,sp,-24
9d007164:	24840000 	addiu	a0,a0,0
9d007168:	10800003 	beqz	a0,9d007178 <_main_entry+0x1c>
9d00716c:	afbf0014 	sw	ra,20(sp)
9d007170:	0080f809 	jalr	a0
9d007174:	00000000 	nop
9d007178:	30840000 	andi	a0,a0,0x0
9d00717c:	30a50000 	andi	a1,a1,0x0
9d007180:	3c089d00 	lui	t0,0x9d00
9d007184:	2508550c 	addiu	t0,t0,21772
9d007188:	0100f809 	jalr	t0
9d00718c:	00000000 	nop

9d007190 <__crt0_exit>:
9d007190:	3c020000 24420000 10400003 00000000     ...<..B$..@.....
9d0071a0:	0040f809 00000000 1000fff9 00000000     ..@.............

Disassembly of section .text.__uflow:

9d0071b0 <__uflow>:
9d0071b0:	27bdffe0 	addiu	sp,sp,-32
9d0071b4:	afb00018 	sw	s0,24(sp)
9d0071b8:	afbf001c 	sw	ra,28(sp)
9d0071bc:	0f4019b3 	jal	9d0066cc <__toread>
9d0071c0:	00808025 	move	s0,a0
9d0071c4:	50400006 	beqzl	v0,9d0071e0 <__uflow+0x30>
9d0071c8:	8e020044 	lw	v0,68(s0)
9d0071cc:	2402ffff 	li	v0,-1
9d0071d0:	8fbf001c 	lw	ra,28(sp)
9d0071d4:	8fb00018 	lw	s0,24(sp)
9d0071d8:	03e00008 	jr	ra
9d0071dc:	27bd0020 	addiu	sp,sp,32
9d0071e0:	24060001 	li	a2,1
9d0071e4:	27a50010 	addiu	a1,sp,16
9d0071e8:	0040f809 	jalr	v0
9d0071ec:	02002025 	move	a0,s0
9d0071f0:	24030001 	li	v1,1
9d0071f4:	1443fff5 	bne	v0,v1,9d0071cc <__uflow+0x1c>
9d0071f8:	93a20010 	lbu	v0,16(sp)
9d0071fc:	1000fff5 	b	9d0071d4 <__uflow+0x24>
9d007200:	8fbf001c 	lw	ra,28(sp)

Disassembly of section .text.__pop_float:

9d007204 <__pop_float>:
9d007204:	28a30080 	slti	v1,a1,128
9d007208:	14600010 	bnez	v1,9d00724c <__pop_float+0x48>
9d00720c:	00001025 	move	v0,zero
9d007210:	28a20082 	slti	v0,a1,130
9d007214:	14400003 	bnez	v0,9d007224 <__pop_float+0x20>
9d007218:	24030083 	li	v1,131
9d00721c:	14a3000b 	bne	a1,v1,9d00724c <__pop_float+0x48>
9d007220:	00001025 	move	v0,zero
9d007224:	8cc20000 	lw	v0,0(a2)
9d007228:	24420007 	addiu	v0,v0,7
9d00722c:	7c021004 	ins	v0,zero,0x0,0x3
9d007230:	24430008 	addiu	v1,v0,8
9d007234:	acc30000 	sw	v1,0(a2)
9d007238:	8c430004 	lw	v1,4(v0)
9d00723c:	8c420000 	lw	v0,0(v0)
9d007240:	ac830004 	sw	v1,4(a0)
9d007244:	ac820000 	sw	v0,0(a0)
9d007248:	24020001 	li	v0,1
9d00724c:	03e00008 	jr	ra
9d007250:	00000000 	nop

Disassembly of section .text.__ftello_adj_rw:

9d007254 <__ftello_adj_rw>:
9d007254:	8c830004 	lw	v1,4(a0)
9d007258:	30620002 	andi	v0,v1,0x2
9d00725c:	14400004 	bnez	v0,9d007270 <__ftello_adj_rw+0x1c>
9d007260:	00003025 	move	a2,zero
9d007264:	8c820040 	lw	v0,64(a0)
9d007268:	8c86003c 	lw	a2,60(a0)
9d00726c:	00463023 	subu	a2,v0,a2
9d007270:	8c870014 	lw	a3,20(a0)
9d007274:	8c840018 	lw	a0,24(a0)
9d007278:	30630040 	andi	v1,v1,0x40
9d00727c:	00e41023 	subu	v0,a3,a0
9d007280:	00461021 	addu	v0,v0,a2
9d007284:	aca20000 	sw	v0,0(a1)
9d007288:	000217c3 	sra	v0,v0,0x1f
9d00728c:	aca20004 	sw	v0,4(a1)
9d007290:	10600002 	beqz	v1,9d00729c <__ftello_adj_rw+0x48>
9d007294:	00001025 	move	v0,zero
9d007298:	0087102b 	sltu	v0,a0,a3
9d00729c:	03e00008 	jr	ra
9d0072a0:	00000000 	nop

Disassembly of section .text.__malloc0:

9d0072a4 <__malloc0>:
9d0072a4:	27bdffe8 	addiu	sp,sp,-24
9d0072a8:	afb00010 	sw	s0,16(sp)
9d0072ac:	afbf0014 	sw	ra,20(sp)
9d0072b0:	0f400f2e 	jal	9d003cb8 <malloc>
9d0072b4:	00808025 	move	s0,a0
9d0072b8:	10400006 	beqz	v0,9d0072d4 <__malloc0+0x30>
9d0072bc:	26100003 	addiu	s0,s0,3
9d0072c0:	7c100804 	ins	s0,zero,0x0,0x2
9d0072c4:	00508021 	addu	s0,v0,s0
9d0072c8:	00401825 	move	v1,v0
9d0072cc:	54700005 	bnel	v1,s0,9d0072e4 <__malloc0+0x40>
9d0072d0:	8c640000 	lw	a0,0(v1)
9d0072d4:	8fbf0014 	lw	ra,20(sp)
9d0072d8:	8fb00010 	lw	s0,16(sp)
9d0072dc:	03e00008 	jr	ra
9d0072e0:	27bd0018 	addiu	sp,sp,24
9d0072e4:	54800001 	bnezl	a0,9d0072ec <__malloc0+0x48>
9d0072e8:	ac600000 	sw	zero,0(v1)
9d0072ec:	1000fff7 	b	9d0072cc <__malloc0+0x28>
9d0072f0:	24630004 	addiu	v1,v1,4

Disassembly of section .text.__shlim:

9d0072f4 <__shlim>:
9d0072f4:	8c830040 	lw	v1,64(a0)
9d0072f8:	8c88003c 	lw	t0,60(a0)
9d0072fc:	00c74825 	or	t1,a2,a3
9d007300:	ac860050 	sw	a2,80(a0)
9d007304:	00681023 	subu	v0,v1,t0
9d007308:	00022fc3 	sra	a1,v0,0x1f
9d00730c:	ac870054 	sw	a3,84(a0)
9d007310:	ac820058 	sw	v0,88(a0)
9d007314:	11200008 	beqz	t1,9d007338 <__shlim+0x44>
9d007318:	ac85005c 	sw	a1,92(a0)
9d00731c:	00e5482a 	slt	t1,a3,a1
9d007320:	55200005 	bnezl	t1,9d007338 <__shlim+0x44>
9d007324:	01061821 	addu	v1,t0,a2
9d007328:	14a70003 	bne	a1,a3,9d007338 <__shlim+0x44>
9d00732c:	00c2102b 	sltu	v0,a2,v0
9d007330:	54400001 	bnezl	v0,9d007338 <__shlim+0x44>
9d007334:	01061821 	addu	v1,t0,a2
9d007338:	03e00008 	jr	ra
9d00733c:	ac83004c 	sw	v1,76(a0)

Disassembly of section .text.__stdio_exit:

9d007340 <__stdio_exit>:
9d007340:	27bdffe8 	addiu	sp,sp,-24
9d007344:	afbf0014 	sw	ra,20(sp)
9d007348:	0f401f2b 	jal	9d007cac <__stdio_exit_ofl>
9d00734c:	00000000 	nop
9d007350:	3c02a000 	lui	v0,0xa000
9d007354:	8c440004 	lw	a0,4(v0)
9d007358:	0f401dc6 	jal	9d007718 <__fclose>
9d00735c:	00002825 	move	a1,zero
9d007360:	3c02a000 	lui	v0,0xa000
9d007364:	8c440004 	lw	a0,4(v0)
9d007368:	0f401dc6 	jal	9d007718 <__fclose>
9d00736c:	00002825 	move	a1,zero
9d007370:	3c02a000 	lui	v0,0xa000
9d007374:	8c440004 	lw	a0,4(v0)
9d007378:	0f401dc6 	jal	9d007718 <__fclose>
9d00737c:	00002825 	move	a1,zero
9d007380:	8fbf0014 	lw	ra,20(sp)
9d007384:	03e00008 	jr	ra
9d007388:	27bd0018 	addiu	sp,sp,24

Disassembly of section .text.sbrk:

9d00738c <sbrk>:
9d00738c:	27bdffe8 	addiu	sp,sp,-24
9d007390:	afb00010 	sw	s0,16(sp)
9d007394:	afbf0014 	sw	ra,20(sp)
9d007398:	0f40186c 	jal	9d0061b0 <_sbrk>
9d00739c:	00808025 	move	s0,a0
9d0073a0:	1a000008 	blez	s0,9d0073c4 <sbrk+0x38>
9d0073a4:	00401825 	move	v1,v0
9d0073a8:	2402ffff 	li	v0,-1
9d0073ac:	10620005 	beq	v1,v0,9d0073c4 <sbrk+0x38>
9d0073b0:	00602025 	move	a0,v1
9d0073b4:	02003025 	move	a2,s0
9d0073b8:	0f401e7c 	jal	9d0079f0 <memset>
9d0073bc:	00002825 	move	a1,zero
9d0073c0:	00401825 	move	v1,v0
9d0073c4:	8fbf0014 	lw	ra,20(sp)
9d0073c8:	00601025 	move	v0,v1
9d0073cc:	8fb00010 	lw	s0,16(sp)
9d0073d0:	03e00008 	jr	ra
9d0073d4:	27bd0018 	addiu	sp,sp,24

Disassembly of section .text._bootstrap_exception_handler:

9d0073d8 <_bootstrap_exception_handler>:
9d0073d8:	3c020000 	lui	v0,0x0
9d0073dc:	24420000 	addiu	v0,v0,0
9d0073e0:	10400005 	beqz	v0,9d0073f8 <_bootstrap_exception_handler+0x20>
9d0073e4:	3c020000 	lui	v0,0x0
9d0073e8:	24420000 	addiu	v0,v0,0
9d0073ec:	10400003 	beqz	v0,9d0073fc <_bootstrap_exception_handler+0x24>
9d0073f0:	3c029d00 	lui	v0,0x9d00
9d0073f4:	7000003f 	sdbbp
9d0073f8:	3c029d00 	lui	v0,0x9d00
9d0073fc:	244274b0 	addiu	v0,v0,29872
9d007400:	10400005 	beqz	v0,9d007418 <_bootstrap_exception_handler+0x40>
9d007404:	00000000 	nop
9d007408:	27bdffe8 	addiu	sp,sp,-24
9d00740c:	afbf0014 	sw	ra,20(sp)
9d007410:	0040f809 	jalr	v0
9d007414:	00000000 	nop
9d007418:	1000ffff 	b	9d007418 <_bootstrap_exception_handler+0x40>
9d00741c:	00000000 	nop

Disassembly of section .text._general_exception_handler:

9d007420 <_general_exception_handler>:
9d007420:	3c020000 	lui	v0,0x0
9d007424:	24420000 	addiu	v0,v0,0
9d007428:	10400005 	beqz	v0,9d007440 <_general_exception_handler+0x20>
9d00742c:	3c020000 	lui	v0,0x0
9d007430:	24420000 	addiu	v0,v0,0
9d007434:	10400003 	beqz	v0,9d007444 <_general_exception_handler+0x24>
9d007438:	3c029d00 	lui	v0,0x9d00
9d00743c:	7000003f 	sdbbp
9d007440:	3c029d00 	lui	v0,0x9d00
9d007444:	244274b0 	addiu	v0,v0,29872
9d007448:	10400005 	beqz	v0,9d007460 <_general_exception_handler+0x40>
9d00744c:	00000000 	nop
9d007450:	27bdffe8 	addiu	sp,sp,-24
9d007454:	afbf0014 	sw	ra,20(sp)
9d007458:	0040f809 	jalr	v0
9d00745c:	00000000 	nop
9d007460:	1000ffff 	b	9d007460 <_general_exception_handler+0x40>
9d007464:	00000000 	nop

Disassembly of section .vector_default:

9d007468 <_DefaultInterrupt>:
9d007468:	3c020000 	lui	v0,0x0
9d00746c:	24420000 	addiu	v0,v0,0
9d007470:	10400007 	beqz	v0,9d007490 <_DefaultInterrupt+0x28>
9d007474:	3c020000 	lui	v0,0x0
9d007478:	24420000 	addiu	v0,v0,0
9d00747c:	50400005 	beqzl	v0,9d007494 <_DefaultInterrupt+0x2c>
9d007480:	3c029d00 	lui	v0,0x9d00
9d007484:	7000003f 	sdbbp
9d007488:	03e00008 	jr	ra
9d00748c:	00000000 	nop
9d007490:	3c029d00 	lui	v0,0x9d00
9d007494:	244274b0 	addiu	v0,v0,29872
9d007498:	10400003 	beqz	v0,9d0074a8 <_DefaultInterrupt+0x40>
9d00749c:	00000000 	nop
9d0074a0:	0040f809 	jalr	v0
9d0074a4:	00000000 	nop
9d0074a8:	03e00008 	jr	ra
9d0074ac:	00000000 	nop

Disassembly of section .text:

9d0074b0 <__pic32_software_reset>:
9d0074b0:	41606000 	di
9d0074b4:	000000c0 	ehb
9d0074b8:	3c03aa99 	lui	v1,0xaa99
9d0074bc:	3c02bf81 	lui	v0,0xbf81
9d0074c0:	24636655 	addiu	v1,v1,26197
9d0074c4:	ac40f230 	sw	zero,-3536(v0)
9d0074c8:	ac43f230 	sw	v1,-3536(v0)
9d0074cc:	3c035566 	lui	v1,0x5566
9d0074d0:	346399aa 	ori	v1,v1,0x99aa
9d0074d4:	ac43f230 	sw	v1,-3536(v0)
9d0074d8:	3c02bf81 	lui	v0,0xbf81
9d0074dc:	24030001 	li	v1,1
9d0074e0:	ac43f618 	sw	v1,-2536(v0)
9d0074e4:	3c02bf81 	lui	v0,0xbf81
9d0074e8:	8c42f610 	lw	v0,-2544(v0)
9d0074ec:	0b401d2e 	j	9d0074b8 <__pic32_software_reset+0x8>
9d0074f0:	00000000 	nop

Disassembly of section .text.__towrite:

9d0074f4 <__towrite>:
9d0074f4:	27bdffe8 	addiu	sp,sp,-24
9d0074f8:	afb00010 	sw	s0,16(sp)
9d0074fc:	afbf0014 	sw	ra,20(sp)
9d007500:	0f401d6c 	jal	9d0075b0 <__towrite_rw>
9d007504:	00808025 	move	s0,a0
9d007508:	14400008 	bnez	v0,9d00752c <__towrite+0x38>
9d00750c:	8fbf0014 	lw	ra,20(sp)
9d007510:	8e030008 	lw	v1,8(s0)
9d007514:	8e04000c 	lw	a0,12(s0)
9d007518:	ae030018 	sw	v1,24(s0)
9d00751c:	ae030014 	sw	v1,20(s0)
9d007520:	00641821 	addu	v1,v1,a0
9d007524:	ae030028 	sw	v1,40(s0)
9d007528:	8fbf0014 	lw	ra,20(sp)
9d00752c:	8fb00010 	lw	s0,16(sp)
9d007530:	03e00008 	jr	ra
9d007534:	27bd0018 	addiu	sp,sp,24

Disassembly of section .text.__sio_sprintf_doux:

9d007538 <__sio_sprintf_doux>:
9d007538:	27bdffe8 	addiu	sp,sp,-24
9d00753c:	afbf0014 	sw	ra,20(sp)
9d007540:	0f4012bc 	jal	9d004af0 <__fmt_d>
9d007544:	00000000 	nop
9d007548:	0f401695 	jal	9d005a54 <__fmt_o>
9d00754c:	00000000 	nop
9d007550:	0f4017e2 	jal	9d005f88 <__fmt_u>
9d007554:	00000000 	nop
9d007558:	0f400fd5 	jal	9d003f54 <__fmt_x>
9d00755c:	00000000 	nop
9d007560:	0f4018c3 	jal	9d00630c <__fmt_s>
9d007564:	00000000 	nop
9d007568:	8fbf0014 	lw	ra,20(sp)
9d00756c:	03e00008 	jr	ra
9d007570:	27bd0018 	addiu	sp,sp,24

Disassembly of section .text.__sio_sscanf_doux:

9d007574 <__sio_sscanf_doux>:
9d007574:	27bdffe8 	addiu	sp,sp,-24
9d007578:	afbf0014 	sw	ra,20(sp)
9d00757c:	0f401b18 	jal	9d006c60 <__scan_d>
9d007580:	00000000 	nop
9d007584:	0f401312 	jal	9d004c48 <__scan_o>
9d007588:	00000000 	nop
9d00758c:	0f401b34 	jal	9d006cd0 <__scan_u>
9d007590:	00000000 	nop
9d007594:	0f401059 	jal	9d004164 <__scan_x>
9d007598:	00000000 	nop
9d00759c:	0f401265 	jal	9d004994 <__scan_s>
9d0075a0:	00000000 	nop
9d0075a4:	8fbf0014 	lw	ra,20(sp)
9d0075a8:	03e00008 	jr	ra
9d0075ac:	27bd0018 	addiu	sp,sp,24

Disassembly of section .text.__towrite_rw:

9d0075b0 <__towrite_rw>:
9d0075b0:	80820048 	lb	v0,72(a0)
9d0075b4:	2443ffff 	addiu	v1,v0,-1
9d0075b8:	00431025 	or	v0,v0,v1
9d0075bc:	a0820048 	sb	v0,72(a0)
9d0075c0:	8c820004 	lw	v0,4(a0)
9d0075c4:	30430004 	andi	v1,v0,0x4
9d0075c8:	50600005 	beqzl	v1,9d0075e0 <__towrite_rw+0x30>
9d0075cc:	ac800040 	sw	zero,64(a0)
9d0075d0:	34420010 	ori	v0,v0,0x10
9d0075d4:	ac820004 	sw	v0,4(a0)
9d0075d8:	03e00008 	jr	ra
9d0075dc:	2402ffff 	li	v0,-1
9d0075e0:	ac80003c 	sw	zero,60(a0)
9d0075e4:	03e00008 	jr	ra
9d0075e8:	00001025 	move	v0,zero

Disassembly of section .text.__vfscanf:

9d0075ec <__vfscanf>:
9d0075ec:	27bdffe0 	addiu	sp,sp,-32
9d0075f0:	afb00018 	sw	s0,24(sp)
9d0075f4:	afa60010 	sw	a2,16(sp)
9d0075f8:	00808025 	move	s0,a0
9d0075fc:	afbf001c 	sw	ra,28(sp)
9d007600:	0f40078b 	jal	9d001e2c <__scanf_core>
9d007604:	27a60010 	addiu	a2,sp,16
9d007608:	8e030004 	lw	v1,4(s0)
9d00760c:	8fbf001c 	lw	ra,28(sp)
9d007610:	2404ffff 	li	a0,-1
9d007614:	30630010 	andi	v1,v1,0x10
9d007618:	0083100b 	movn	v0,a0,v1
9d00761c:	8fb00018 	lw	s0,24(sp)
9d007620:	03e00008 	jr	ra
9d007624:	27bd0020 	addiu	sp,sp,32

Disassembly of section .text.__expand_heap:

9d007628 <__expand_heap>:
9d007628:	8c840000 	lw	a0,0(a0)
9d00762c:	04810003 	bgez	a0,9d00763c <__expand_heap+0x14>
9d007630:	00001025 	move	v0,zero
9d007634:	03e00008 	jr	ra
9d007638:	00000000 	nop
9d00763c:	27bdffe8 	addiu	sp,sp,-24
9d007640:	afbf0014 	sw	ra,20(sp)
9d007644:	0f40186c 	jal	9d0061b0 <_sbrk>
9d007648:	00000000 	nop
9d00764c:	2403ffff 	li	v1,-1
9d007650:	50430001 	beql	v0,v1,9d007658 <__expand_heap+0x30>
9d007654:	00001025 	move	v0,zero
9d007658:	8fbf0014 	lw	ra,20(sp)
9d00765c:	03e00008 	jr	ra
9d007660:	27bd0018 	addiu	sp,sp,24

Disassembly of section .text.__vfprintf:

9d007664 <__vfprintf>:
9d007664:	27bdffe0 	addiu	sp,sp,-32
9d007668:	afb00018 	sw	s0,24(sp)
9d00766c:	afa60010 	sw	a2,16(sp)
9d007670:	00808025 	move	s0,a0
9d007674:	afbf001c 	sw	ra,28(sp)
9d007678:	0f400b26 	jal	9d002c98 <__printf_core>
9d00767c:	27a60010 	addiu	a2,sp,16
9d007680:	8e030004 	lw	v1,4(s0)
9d007684:	8fbf001c 	lw	ra,28(sp)
9d007688:	2404ffff 	li	a0,-1
9d00768c:	30630010 	andi	v1,v1,0x10
9d007690:	0083100b 	movn	v0,a0,v1
9d007694:	8fb00018 	lw	s0,24(sp)
9d007698:	03e00008 	jr	ra
9d00769c:	27bd0020 	addiu	sp,sp,32

Disassembly of section .text:

9d0076a0 <__lshrdi3>:
9d0076a0:	10c00008 	beqz	a2,9d0076c4 <__lshrdi3+0x24>
9d0076a4:	00801025 	move	v0,a0
9d0076a8:	24030020 	li	v1,32
9d0076ac:	00661823 	subu	v1,v1,a2
9d0076b0:	1c600006 	bgtz	v1,9d0076cc <__lshrdi3+0x2c>
9d0076b4:	00c52006 	srlv	a0,a1,a2
9d0076b8:	00002025 	move	a0,zero
9d0076bc:	00c51006 	srlv	v0,a1,a2
9d0076c0:	00802825 	move	a1,a0
9d0076c4:	03e00008 	jr	ra
9d0076c8:	00a01825 	move	v1,a1
9d0076cc:	00c21006 	srlv	v0,v0,a2
9d0076d0:	00652804 	sllv	a1,a1,v1
9d0076d4:	1000fffa 	b	9d0076c0 <__lshrdi3+0x20>
9d0076d8:	00451025 	or	v0,v0,a1

9d0076dc <__ashldi3>:
9d0076dc:	10c00008 	beqz	a2,9d007700 <__ashldi3+0x24>
9d0076e0:	00801025 	move	v0,a0
9d0076e4:	24040020 	li	a0,32
9d0076e8:	00862023 	subu	a0,a0,a2
9d0076ec:	5c800006 	bgtzl	a0,9d007708 <__ashldi3+0x2c>
9d0076f0:	00c21804 	sllv	v1,v0,a2
9d0076f4:	00001825 	move	v1,zero
9d0076f8:	00c22804 	sllv	a1,v0,a2
9d0076fc:	00601025 	move	v0,v1
9d007700:	03e00008 	jr	ra
9d007704:	00a01825 	move	v1,a1
9d007708:	00c52804 	sllv	a1,a1,a2
9d00770c:	00821006 	srlv	v0,v0,a0
9d007710:	1000fffa 	b	9d0076fc <__ashldi3+0x20>
9d007714:	00a22825 	or	a1,a1,v0

Disassembly of section .text.__fclose:

9d007718 <__fclose>:
9d007718:	1080000b 	beqz	a0,9d007748 <__fclose+0x30>
9d00771c:	00001025 	move	v0,zero
9d007720:	8c83001c 	lw	v1,28(a0)
9d007724:	10600008 	beqz	v1,9d007748 <__fclose+0x30>
9d007728:	00000000 	nop
9d00772c:	27bdffe8 	addiu	sp,sp,-24
9d007730:	afbf0014 	sw	ra,20(sp)
9d007734:	0060f809 	jalr	v1
9d007738:	00000000 	nop
9d00773c:	8fbf0014 	lw	ra,20(sp)
9d007740:	03e00008 	jr	ra
9d007744:	27bd0018 	addiu	sp,sp,24
9d007748:	03e00008 	jr	ra
9d00774c:	00000000 	nop

Disassembly of section .text.lock_bin:

9d007750 <lock_bin>:
9d007750:	24840001 	addiu	a0,a0,1
9d007754:	000410c0 	sll	v0,a0,0x3
9d007758:	3c04a000 	lui	a0,0xa000
9d00775c:	24840010 	addiu	a0,a0,16
9d007760:	00441821 	addu	v1,v0,a0
9d007764:	8c650000 	lw	a1,0(v1)
9d007768:	14a00004 	bnez	a1,9d00777c <lock_bin+0x2c>
9d00776c:	2442fff8 	addiu	v0,v0,-8
9d007770:	00822021 	addu	a0,a0,v0
9d007774:	ac640004 	sw	a0,4(v1)
9d007778:	ac640000 	sw	a0,0(v1)
9d00777c:	03e00008 	jr	ra
9d007780:	00000000 	nop

Disassembly of section .text.__dummy:

9d007784 <__dummy>:
9d007784:	8c870014 	lw	a3,20(a0)
9d007788:	8c860018 	lw	a2,24(a0)
9d00778c:	8c830004 	lw	v1,4(a0)
9d007790:	00e61023 	subu	v0,a3,a2
9d007794:	aca20000 	sw	v0,0(a1)
9d007798:	30630040 	andi	v1,v1,0x40
9d00779c:	000217c3 	sra	v0,v0,0x1f
9d0077a0:	aca20004 	sw	v0,4(a1)
9d0077a4:	10600002 	beqz	v1,9d0077b0 <__dummy+0x2c>
9d0077a8:	00001025 	move	v0,zero
9d0077ac:	00c7102b 	sltu	v0,a2,a3
9d0077b0:	03e00008 	jr	ra
9d0077b4:	00000000 	nop

Disassembly of section .text.__fwrite:

9d0077b8 <__fwrite>:
9d0077b8:	8c83002c 	lw	v1,44(a0)
9d0077bc:	27bdffe8 	addiu	sp,sp,-24
9d0077c0:	10600006 	beqz	v1,9d0077dc <__fwrite+0x24>
9d0077c4:	afbf0014 	sw	ra,20(sp)
9d0077c8:	0060f809 	jalr	v1
9d0077cc:	00000000 	nop
9d0077d0:	8fbf0014 	lw	ra,20(sp)
9d0077d4:	03e00008 	jr	ra
9d0077d8:	27bd0018 	addiu	sp,sp,24
9d0077dc:	0f401a40 	jal	9d006900 <write>
9d0077e0:	8c840000 	lw	a0,0(a0)
9d0077e4:	1000fffb 	b	9d0077d4 <__fwrite+0x1c>
9d0077e8:	8fbf0014 	lw	ra,20(sp)

Disassembly of section .text.memchr:

9d0077ec <memchr>:
9d0077ec:	00801025 	move	v0,a0
9d0077f0:	30a500ff 	andi	a1,a1,0xff
9d0077f4:	00863021 	addu	a2,a0,a2
9d0077f8:	54460004 	bnel	v0,a2,9d00780c <memchr+0x20>
9d0077fc:	90430000 	lbu	v1,0(v0)
9d007800:	00001025 	move	v0,zero
9d007804:	03e00008 	jr	ra
9d007808:	00000000 	nop
9d00780c:	1065fffd 	beq	v1,a1,9d007804 <memchr+0x18>
9d007810:	00000000 	nop
9d007814:	1000fff8 	b	9d0077f8 <memchr+0xc>
9d007818:	24420001 	addiu	v0,v0,1

Disassembly of section .text.strtoull:

9d00781c <strtoull>:
9d00781c:	27bdffe0 	addiu	sp,sp,-32
9d007820:	2402ffff 	li	v0,-1
9d007824:	2403ffff 	li	v1,-1
9d007828:	afa20010 	sw	v0,16(sp)
9d00782c:	afa30014 	sw	v1,20(sp)
9d007830:	afbf001c 	sw	ra,28(sp)
9d007834:	0f401811 	jal	9d006044 <strtox>
9d007838:	00000000 	nop
9d00783c:	8fbf001c 	lw	ra,28(sp)
9d007840:	03e00008 	jr	ra
9d007844:	27bd0020 	addiu	sp,sp,32

Disassembly of section .text.strtoll:

9d007848 <strtoll>:
9d007848:	27bdffe0 	addiu	sp,sp,-32
9d00784c:	00001025 	move	v0,zero
9d007850:	3c038000 	lui	v1,0x8000
9d007854:	afa20010 	sw	v0,16(sp)
9d007858:	afa30014 	sw	v1,20(sp)
9d00785c:	afbf001c 	sw	ra,28(sp)
9d007860:	0f401811 	jal	9d006044 <strtox>
9d007864:	00000000 	nop
9d007868:	8fbf001c 	lw	ra,28(sp)
9d00786c:	03e00008 	jr	ra
9d007870:	27bd0020 	addiu	sp,sp,32

Disassembly of section .text.strtoul:

9d007874 <strtoul>:
9d007874:	27bdffe0 	addiu	sp,sp,-32
9d007878:	2402ffff 	li	v0,-1
9d00787c:	00001825 	move	v1,zero
9d007880:	afa20010 	sw	v0,16(sp)
9d007884:	afa30014 	sw	v1,20(sp)
9d007888:	afbf001c 	sw	ra,28(sp)
9d00788c:	0f401811 	jal	9d006044 <strtox>
9d007890:	00000000 	nop
9d007894:	8fbf001c 	lw	ra,28(sp)
9d007898:	03e00008 	jr	ra
9d00789c:	27bd0020 	addiu	sp,sp,32

Disassembly of section .text.strtol:

9d0078a0 <strtol>:
9d0078a0:	27bdffe0 	addiu	sp,sp,-32
9d0078a4:	3c028000 	lui	v0,0x8000
9d0078a8:	00001825 	move	v1,zero
9d0078ac:	afa20010 	sw	v0,16(sp)
9d0078b0:	afa30014 	sw	v1,20(sp)
9d0078b4:	afbf001c 	sw	ra,28(sp)
9d0078b8:	0f401811 	jal	9d006044 <strtox>
9d0078bc:	00000000 	nop
9d0078c0:	8fbf001c 	lw	ra,28(sp)
9d0078c4:	03e00008 	jr	ra
9d0078c8:	27bd0020 	addiu	sp,sp,32

Disassembly of section .text.memcpy:

9d0078cc <memcpy>:
9d0078cc:	00801025 	move	v0,a0
9d0078d0:	00001825 	move	v1,zero
9d0078d4:	14c30003 	bne	a2,v1,9d0078e4 <memcpy+0x18>
9d0078d8:	00a33821 	addu	a3,a1,v1
9d0078dc:	03e00008 	jr	ra
9d0078e0:	00000000 	nop
9d0078e4:	90e70000 	lbu	a3,0(a3)
9d0078e8:	00432021 	addu	a0,v0,v1
9d0078ec:	24630001 	addiu	v1,v1,1
9d0078f0:	1000fff8 	b	9d0078d4 <memcpy+0x8>
9d0078f4:	a0870000 	sb	a3,0(a0)

Disassembly of section .text.__init_stdio:

9d0078f8 <__init_stdio>:
9d0078f8:	27bdffe8 	addiu	sp,sp,-24
9d0078fc:	afbf0014 	sw	ra,20(sp)
9d007900:	0f401f33 	jal	9d007ccc <__init_stderr>
9d007904:	00000000 	nop
9d007908:	0f401f33 	jal	9d007ccc <__init_stderr>
9d00790c:	00000000 	nop
9d007910:	0f401f33 	jal	9d007ccc <__init_stderr>
9d007914:	00000000 	nop
9d007918:	8fbf0014 	lw	ra,20(sp)
9d00791c:	03e00008 	jr	ra
9d007920:	27bd0018 	addiu	sp,sp,24

Disassembly of section .text._stub_sbd_memlayout:

9d007924 <_stub_sbd_memlayout>:
9d007924:	3c04a000 	lui	a0,0xa000
9d007928:	24820338 	addiu	v0,a0,824
9d00792c:	24030001 	li	v1,1
9d007930:	ac430008 	sw	v1,8(v0)
9d007934:	3c03a000 	lui	v1,0xa000
9d007938:	24630368 	addiu	v1,v1,872
9d00793c:	ac830338 	sw	v1,824(a0)
9d007940:	3c030000 	lui	v1,0x0
9d007944:	24630000 	addiu	v1,v1,0
9d007948:	03e00008 	jr	ra
9d00794c:	ac430004 	sw	v1,4(v0)

Disassembly of section .text.__wrap_sprintf:

9d007950 <_dsprintf_cdnopuxX>:
9d007950:	27bdffe0 	addiu	sp,sp,-32
9d007954:	afa60028 	sw	a2,40(sp)
9d007958:	27a60028 	addiu	a2,sp,40
9d00795c:	afbf001c 	sw	ra,28(sp)
9d007960:	afa7002c 	sw	a3,44(sp)
9d007964:	0f401e68 	jal	9d0079a0 <__vsprintf>
9d007968:	afa60010 	sw	a2,16(sp)
9d00796c:	8fbf001c 	lw	ra,28(sp)
9d007970:	03e00008 	jr	ra
9d007974:	27bd0020 	addiu	sp,sp,32

Disassembly of section .text.__wrap_sscanf:

9d007978 <_dsscanf_cdnopuxX>:
9d007978:	27bdffe0 	addiu	sp,sp,-32
9d00797c:	afa60028 	sw	a2,40(sp)
9d007980:	27a60028 	addiu	a2,sp,40
9d007984:	afbf001c 	sw	ra,28(sp)
9d007988:	afa7002c 	sw	a3,44(sp)
9d00798c:	0f401b6c 	jal	9d006db0 <__vsscanf>
9d007990:	afa60010 	sw	a2,16(sp)
9d007994:	8fbf001c 	lw	ra,28(sp)
9d007998:	03e00008 	jr	ra
9d00799c:	27bd0020 	addiu	sp,sp,32

Disassembly of section .text.__vsprintf:

9d0079a0 <__vsprintf>:
9d0079a0:	00c03825 	move	a3,a2
9d0079a4:	00a03025 	move	a2,a1
9d0079a8:	3c057fff 	lui	a1,0x7fff
9d0079ac:	27bdffe8 	addiu	sp,sp,-24
9d0079b0:	afbf0014 	sw	ra,20(sp)
9d0079b4:	0f401a82 	jal	9d006a08 <__vsnprintf>
9d0079b8:	34a5ffff 	ori	a1,a1,0xffff
9d0079bc:	8fbf0014 	lw	ra,20(sp)
9d0079c0:	03e00008 	jr	ra
9d0079c4:	27bd0018 	addiu	sp,sp,24

Disassembly of section .text.__fseeko:

9d0079c8 <__fseeko>:
9d0079c8:	27bdffe0 	addiu	sp,sp,-32
9d0079cc:	8fa20030 	lw	v0,48(sp)
9d0079d0:	afbf001c 	sw	ra,28(sp)
9d0079d4:	afa20010 	sw	v0,16(sp)
9d0079d8:	8c820030 	lw	v0,48(a0)
9d0079dc:	0040f809 	jalr	v0
9d0079e0:	00000000 	nop
9d0079e4:	8fbf001c 	lw	ra,28(sp)
9d0079e8:	03e00008 	jr	ra
9d0079ec:	27bd0020 	addiu	sp,sp,32

Disassembly of section .text.memset:

9d0079f0 <memset>:
9d0079f0:	00801025 	move	v0,a0
9d0079f4:	00863021 	addu	a2,a0,a2
9d0079f8:	00801825 	move	v1,a0
9d0079fc:	14660003 	bne	v1,a2,9d007a0c <memset+0x1c>
9d007a00:	24630001 	addiu	v1,v1,1
9d007a04:	03e00008 	jr	ra
9d007a08:	00000000 	nop
9d007a0c:	1000fffb 	b	9d0079fc <memset+0xc>
9d007a10:	a065ffff 	sb	a1,-1(v1)

Disassembly of section .text.isxdigit:

9d007a14 <isxdigit>:
9d007a14:	2483ffd0 	addiu	v1,a0,-48
9d007a18:	2c63000a 	sltiu	v1,v1,10
9d007a1c:	14600004 	bnez	v1,9d007a30 <isxdigit+0x1c>
9d007a20:	24020001 	li	v0,1
9d007a24:	34840020 	ori	a0,a0,0x20
9d007a28:	2482ff9f 	addiu	v0,a0,-97
9d007a2c:	2c420006 	sltiu	v0,v0,6
9d007a30:	03e00008 	jr	ra
9d007a34:	00000000 	nop

Disassembly of section .text.__syscall_ret:

9d007a38 <__syscall_ret>:
9d007a38:	2c83f001 	sltiu	v1,a0,-4095
9d007a3c:	14600005 	bnez	v1,9d007a54 <__syscall_ret+0x1c>
9d007a40:	00801025 	move	v0,a0
9d007a44:	00041023 	negu	v0,a0
9d007a48:	3c03a000 	lui	v1,0xa000
9d007a4c:	ac62035c 	sw	v0,860(v1)
9d007a50:	2402ffff 	li	v0,-1
9d007a54:	03e00008 	jr	ra
9d007a58:	00000000 	nop

Disassembly of section .text.__fwrite_min:

9d007a5c <__stdio_write>:
9d007a5c:	8c840000 	lw	a0,0(a0)
9d007a60:	27bdffe8 	addiu	sp,sp,-24
9d007a64:	afbf0014 	sw	ra,20(sp)
9d007a68:	0f401a40 	jal	9d006900 <write>
9d007a6c:	00000000 	nop
9d007a70:	8fbf0014 	lw	ra,20(sp)
9d007a74:	03e00008 	jr	ra
9d007a78:	27bd0018 	addiu	sp,sp,24

Disassembly of section .text.strtoimax:

9d007a7c <strtoimax>:
9d007a7c:	27bdffe8 	addiu	sp,sp,-24
9d007a80:	afbf0014 	sw	ra,20(sp)
9d007a84:	0f401e12 	jal	9d007848 <strtoll>
9d007a88:	00000000 	nop
9d007a8c:	8fbf0014 	lw	ra,20(sp)
9d007a90:	03e00008 	jr	ra
9d007a94:	27bd0018 	addiu	sp,sp,24

Disassembly of section .text.strtoumax:

9d007a98 <strtoumax>:
9d007a98:	27bdffe8 	addiu	sp,sp,-24
9d007a9c:	afbf0014 	sw	ra,20(sp)
9d007aa0:	0f401e07 	jal	9d00781c <strtoull>
9d007aa4:	00000000 	nop
9d007aa8:	8fbf0014 	lw	ra,20(sp)
9d007aac:	03e00008 	jr	ra
9d007ab0:	27bd0018 	addiu	sp,sp,24

Disassembly of section .text.__isxdigit_l:

9d007ab4 <__isxdigit_l>:
9d007ab4:	27bdffe8 	addiu	sp,sp,-24
9d007ab8:	afbf0014 	sw	ra,20(sp)
9d007abc:	0f401e85 	jal	9d007a14 <isxdigit>
9d007ac0:	00000000 	nop
9d007ac4:	8fbf0014 	lw	ra,20(sp)
9d007ac8:	03e00008 	jr	ra
9d007acc:	27bd0018 	addiu	sp,sp,24

Disassembly of section .text.tolower:

9d007ad0 <tolower>:
9d007ad0:	2483ffbf 	addiu	v1,a0,-65
9d007ad4:	2c63001a 	sltiu	v1,v1,26
9d007ad8:	10600002 	beqz	v1,9d007ae4 <tolower+0x14>
9d007adc:	00801025 	move	v0,a0
9d007ae0:	34820020 	ori	v0,a0,0x20
9d007ae4:	03e00008 	jr	ra
9d007ae8:	00000000 	nop

Disassembly of section .text.__tolower_l:

9d007aec <__tolower_l>:
9d007aec:	27bdffe8 	addiu	sp,sp,-24
9d007af0:	afbf0014 	sw	ra,20(sp)
9d007af4:	0f401eb4 	jal	9d007ad0 <tolower>
9d007af8:	00000000 	nop
9d007afc:	8fbf0014 	lw	ra,20(sp)
9d007b00:	03e00008 	jr	ra
9d007b04:	27bd0018 	addiu	sp,sp,24

Disassembly of section .text.toupper:

9d007b08 <toupper>:
9d007b08:	2483ff9f 	addiu	v1,a0,-97
9d007b0c:	2c63001a 	sltiu	v1,v1,26
9d007b10:	10600002 	beqz	v1,9d007b1c <toupper+0x14>
9d007b14:	00801025 	move	v0,a0
9d007b18:	3082005f 	andi	v0,a0,0x5f
9d007b1c:	03e00008 	jr	ra
9d007b20:	00000000 	nop

Disassembly of section .text.__toupper_l:

9d007b24 <__toupper_l>:
9d007b24:	27bdffe8 	addiu	sp,sp,-24
9d007b28:	afbf0014 	sw	ra,20(sp)
9d007b2c:	0f401ec2 	jal	9d007b08 <toupper>
9d007b30:	00000000 	nop
9d007b34:	8fbf0014 	lw	ra,20(sp)
9d007b38:	03e00008 	jr	ra
9d007b3c:	27bd0018 	addiu	sp,sp,24

Disassembly of section .text.do_read:

9d007b40 <do_read>:
9d007b40:	27bdffe8 	addiu	sp,sp,-24
9d007b44:	afbf0014 	sw	ra,20(sp)
9d007b48:	0f401917 	jal	9d00645c <__string_read>
9d007b4c:	00000000 	nop
9d007b50:	8fbf0014 	lw	ra,20(sp)
9d007b54:	03e00008 	jr	ra
9d007b58:	27bd0018 	addiu	sp,sp,24

Disassembly of section .text.__toread_needs_stdio_exit:

9d007b5c <__toread_needs_stdio_exit>:
9d007b5c:	27bdffe8 	addiu	sp,sp,-24
9d007b60:	afbf0014 	sw	ra,20(sp)
9d007b64:	0f401cd0 	jal	9d007340 <__stdio_exit>
9d007b68:	00000000 	nop
9d007b6c:	8fbf0014 	lw	ra,20(sp)
9d007b70:	03e00008 	jr	ra
9d007b74:	27bd0018 	addiu	sp,sp,24

Disassembly of section .text.putc:

9d007b78 <putc>:
9d007b78:	27bdffe8 	addiu	sp,sp,-24
9d007b7c:	afbf0014 	sw	ra,20(sp)
9d007b80:	0f401ade 	jal	9d006b78 <__putc>
9d007b84:	00000000 	nop
9d007b88:	8fbf0014 	lw	ra,20(sp)
9d007b8c:	03e00008 	jr	ra
9d007b90:	27bd0018 	addiu	sp,sp,24

Disassembly of section .text.__fopen:

9d007b94 <__fopen>:
9d007b94:	27bdffe8 	addiu	sp,sp,-24
9d007b98:	afbf0014 	sw	ra,20(sp)
9d007b9c:	0f401a1e 	jal	9d006878 <__fopen_rw>
9d007ba0:	00000000 	nop
9d007ba4:	8fbf0014 	lw	ra,20(sp)
9d007ba8:	03e00008 	jr	ra
9d007bac:	27bd0018 	addiu	sp,sp,24

Disassembly of section .text.__ftello_adj:

9d007bb0 <__ftello_adj>:
9d007bb0:	27bdffe8 	addiu	sp,sp,-24
9d007bb4:	afbf0014 	sw	ra,20(sp)
9d007bb8:	0f401c95 	jal	9d007254 <__ftello_adj_rw>
9d007bbc:	00000000 	nop
9d007bc0:	8fbf0014 	lw	ra,20(sp)
9d007bc4:	03e00008 	jr	ra
9d007bc8:	27bd0018 	addiu	sp,sp,24

Disassembly of section .text.__read:

9d007bcc <__read>:
9d007bcc:	27bdffe8 	addiu	sp,sp,-24
9d007bd0:	afbf0014 	sw	ra,20(sp)
9d007bd4:	0f401e8e 	jal	9d007a38 <__syscall_ret>
9d007bd8:	2404fff7 	li	a0,-9
9d007bdc:	8fbf0014 	lw	ra,20(sp)
9d007be0:	03e00008 	jr	ra
9d007be4:	27bd0018 	addiu	sp,sp,24

Disassembly of section .text:

9d007c00 <_nmi_handler>:
9d007c00:	401a6000 	mfc0	k0,c0_status
9d007c04:	3c1bffbf 	lui	k1,0xffbf
9d007c08:	377bffff 	ori	k1,k1,0xffff
9d007c0c:	035bd024 	and	k0,k0,k1
9d007c10:	409a6000 	mtc0	k0,c0_status
9d007c14:	42000018 	eret

Disassembly of section .rodata:

9d007c18 <state_table>:
9d007c18:	096c0768 906a834c c07aa074 88688000     h.l.L.j.t.z...h.
9d007c28:	826c8400 00008100                       ..l.....

Disassembly of section .text.strlen:

9d007c30 <strlen>:
9d007c30:	00801025 	move	v0,a0
9d007c34:	80430000 	lb	v1,0(v0)
9d007c38:	5460fffe 	bnezl	v1,9d007c34 <strlen+0x4>
9d007c3c:	24420001 	addiu	v0,v0,1
9d007c40:	03e00008 	jr	ra
9d007c44:	00441023 	subu	v0,v0,a0

Disassembly of section .text.__get_stderr:

9d007c48 <__get_stderr>:
9d007c48:	3c02a000 	lui	v0,0xa000
9d007c4c:	03e00008 	jr	ra
9d007c50:	24420218 	addiu	v0,v0,536

Disassembly of section .text.__get_stdout:

9d007c54 <__get_stdout>:
9d007c54:	3c02a000 	lui	v0,0xa000
9d007c58:	03e00008 	jr	ra
9d007c5c:	24420280 	addiu	v0,v0,640

Disassembly of section .text.__dummy:

9d007c60 <__dummy>:
9d007c60:	00001025 	move	v0,zero
9d007c64:	03e00008 	jr	ra
9d007c68:	00001825 	move	v1,zero

Disassembly of section .text._on_reset:

9d007c6c <_on_reset>:
9d007c6c:	03e00008 	jr	ra
9d007c70:	00000000 	nop

Disassembly of section .text._on_bootstrap:

9d007c74 <_on_bootstrap>:
9d007c74:	03e00008 	jr	ra
9d007c78:	00000000 	nop

Disassembly of section .text.__dummy_fmt3:

9d007c7c <__dummy_fmt3>:
9d007c7c:	03e00008 	jr	ra
9d007c80:	00001025 	move	v0,zero

Disassembly of section .text.__dummy_fmt4:

9d007c84 <__fmt_a>:
9d007c84:	03e00008 	jr	ra
9d007c88:	00001025 	move	v0,zero

Disassembly of section .text.__dummy_fmts:

9d007c8c <__dummy_fmts>:
9d007c8c:	03e00008 	jr	ra
9d007c90:	00001025 	move	v0,zero

Disassembly of section .text.__dummy_scan:

9d007c94 <__scan_a>:
9d007c94:	03e00008 	jr	ra
9d007c98:	00001025 	move	v0,zero

Disassembly of section .text.__dummy_scan_s:

9d007c9c <__dummy_scan_s>:
9d007c9c:	03e00008 	jr	ra
9d007ca0:	00001025 	move	v0,zero

Disassembly of section .text.__dummy:

9d007ca4 <__dummy>:
9d007ca4:	03e00008 	jr	ra
9d007ca8:	00000000 	nop

9d007cac <__stdio_exit_ofl>:
9d007cac:	03e00008 	jr	ra
9d007cb0:	00000000 	nop

Disassembly of section .text.__dummy1:

9d007cb4 <__dummy1>:
9d007cb4:	03e00008 	jr	ra
9d007cb8:	00001025 	move	v0,zero

Disassembly of section .text.__dummy:

9d007cbc <__dummy>:
9d007cbc:	03e00008 	jr	ra
9d007cc0:	00000000 	nop

9d007cc4 <__dummy>:
9d007cc4:	03e00008 	jr	ra
9d007cc8:	00001025 	move	v0,zero

Disassembly of section .text.__dummy:

9d007ccc <__init_stderr>:
9d007ccc:	03e00008 	jr	ra
9d007cd0:	00000000 	nop

Disassembly of section .text.getpagesize:

9d007cd4 <getpagesize>:
9d007cd4:	03e00008 	jr	ra
9d007cd8:	24020080 	li	v0,128

Disassembly of section .text.lseek:

9d007cdc <lseek>:
9d007cdc:	03e00008 	jr	ra
9d007ce0:	00001025 	move	v0,zero

Disassembly of section .text.close:

9d007ce4 <close>:
9d007ce4:	03e00008 	jr	ra
9d007ce8:	00001025 	move	v0,zero
